(dp0
(S'DTW'
p1
S'SAN'
p2
tp3
(lp4
S'SFO'
p5
aS'LAX'
p6
as(S'ATL'
p7
S'SAN'
p8
tp9
(lp10
S'SFO'
p11
aS'LAX'
p12
as(S'BWI'
p13
S'PHX'
p14
tp15
(lp16
S'ELP'
p17
aS'TUS'
p18
aS'LAS'
p19
as(S'MIA'
p20
S'LAX'
p21
tp22
(lp23
S'PHX'
p24
aS'SAN'
p25
aS'PDX'
p26
aS'FAT'
p27
aS'SFO'
p28
aS'SBA'
p29
aS'SMF'
p30
aS'LAS'
p31
as(S'ATL'
p32
S'FLL'
p33
tp34
(lp35
S'LAX'
p36
as(S'TPA'
p37
S'CLT'
p38
tp39
(lp40
S'JFK'
p41
aS'GSP'
p42
aS'MKE'
p43
aS'ROC'
p44
aS'CRW'
p45
aS'CMH'
p46
aS'ALB'
p47
aS'ATL'
p48
aS'BOS'
p49
aS'OAJ'
p50
aS'FLO'
p51
aS'MSP'
p52
aS'CAK'
p53
aS'DEN'
p54
aS'CVG'
p55
aS'DTW'
p56
aS'MHT'
p57
aS'GSO'
p58
aS'IAH'
p59
aS'FAY'
p60
aS'AGS'
p61
aS'LAS'
p62
aS'DCA'
p63
aS'PGV'
p64
aS'BUF'
p65
aS'HSV'
p66
aS'PVD'
p67
aS'IAD'
p68
aS'BDL'
p69
aS'BWI'
p70
aS'MYR'
p71
aS'PIT'
p72
aS'RIC'
p73
aS'MDT'
p74
aS'SAT'
p75
aS'TRI'
p76
aS'CHA'
p77
aS'ILM'
p78
aS'EWN'
p79
aS'STL'
p80
aS'CLE'
p81
aS'DFW'
p82
aS'CHO'
p83
aS'LEX'
p84
aS'AUS'
p85
aS'CHS'
p86
aS'HPN'
p87
aS'LGA'
p88
aS'EWR'
p89
aS'BNA'
p90
aS'IND'
p91
aS'OMA'
p92
aS'BHM'
p93
aS'MCI'
p94
aS'PHL'
p95
aS'MEM'
p96
aS'LYH'
p97
aS'SBY'
p98
aS'AVP'
p99
aS'PHF'
p100
aS'DAY'
p101
aS'AVL'
p102
aS'SYR'
p103
aS'SDF'
p104
aS'HTS'
p105
aS'ORF'
p106
aS'ORD'
p107
aS'PWM'
p108
aS'RDU'
p109
aS'TYS'
p110
as(S'BWI'
p111
S'MKE'
p112
tp113
(lp114
S'MSP'
p115
as(S'FLL'
p116
S'PHX'
p117
tp118
(lp119
S'SAN'
p120
aS'SNA'
p121
aS'LGB'
p122
aS'OAK'
p123
aS'SFO'
p124
aS'LAX'
p125
aS'SEA'
p126
aS'ONT'
p127
aS'LAS'
p128
as(S'LAS'
p129
S'BOS'
p130
tp131
(lp132
S'JFK'
p133
aS'IAD'
p134
aS'DCA'
p135
aS'BWI'
p136
aS'EWR'
p137
aS'BUF'
p138
as(S'MDW'
p139
S'DTW'
p140
tp141
(lp142
S'JFK'
p143
aS'RDU'
p144
aS'DCA'
p145
as(S'IAH'
p146
S'ATL'
p147
tp148
(lp149
S'RDU'
p150
aS'ORD'
p151
aS'FNT'
p152
aS'MDW'
p153
aS'PIA'
p154
aS'SYR'
p155
aS'CLE'
p156
aS'EWR'
p157
aS'MLI'
p158
aS'PHF'
p159
aS'CHO'
p160
aS'CAK'
p161
aS'MSN'
p162
aS'PVD'
p163
aS'ECP'
p164
aS'ROC'
p165
aS'MHT'
p166
aS'AGS'
p167
aS'DAY'
p168
as(S'TPA'
p169
S'LGA'
p170
tp171
(lp172
S'BTV'
p173
aS'ROC'
p174
aS'SYR'
p175
aS'MHT'
p176
aS'PWM'
p177
aS'BUF'
p178
as(S'STL'
p179
S'DEN'
p180
tp181
(lp182
S'ABQ'
p183
aS'PHX'
p184
as(S'IAD'
p185
S'LGB'
p186
tp187
(lp188
S'LAS'
p189
as(S'MSP'
p190
S'EWR'
p191
tp192
(lp193
S'LGA'
p194
aS'BOS'
p195
aS'SJU'
p196
aS'BTV'
p197
aS'MHT'
p198
aS'PWM'
p199
as(S'ATL'
p200
S'EWR'
p201
tp202
(lp203
S'BOS'
p204
aS'JFK'
p205
aS'LGA'
p206
aS'BTV'
p207
as(S'SNA'
p208
S'ORD'
p209
tp210
(lp211
S'MSN'
p212
aS'MCO'
p213
aS'MKE'
p214
aS'BMI'
p215
aS'CMI'
p216
aS'CID'
p217
aS'STL'
p218
aS'PIA'
p219
aS'LGA'
p220
aS'FWA'
p221
aS'MLI'
p222
aS'ATW'
p223
aS'DSM'
p224
aS'GRB'
p225
aS'CLE'
p226
aS'CWA'
p227
aS'BWI'
p228
aS'PHL'
p229
aS'DTW'
p230
aS'PIT'
p231
as(S'LAS'
p232
S'EWR'
p233
tp234
(lp235
S'BOS'
p236
aS'BTV'
p237
aS'AVP'
p238
aS'ITH'
p239
aS'BUF'
p240
aS'ROC'
p241
aS'ALB'
p242
aS'SYR'
p243
aS'PVD'
p244
aS'BDL'
p245
aS'ORF'
p246
aS'BWI'
p247
aS'MHT'
p248
aS'PWM'
p249
aS'PIT'
p250
aS'RIC'
p251
as(S'PHL'
p252
S'DEN'
p253
tp254
(lp255
S'COS'
p256
aS'SAN'
p257
aS'PDX'
p258
aS'DRO'
p259
aS'PHX'
p260
aS'LAX'
p261
aS'SEA'
p262
aS'LAS'
p263
as(S'ORD'
p264
S'PHX'
p265
tp266
(lp267
S'LGB'
p268
aS'LAS'
p269
as(S'DFW'
p270
S'COS'
p271
tp272
(lp273
S'DEN'
p274
as(S'SEA'
p275
S'SJC'
p276
tp277
(lp278
S'SAN'
p279
aS'SNA'
p280
aS'BUR'
p281
aS'LAX'
p282
aS'ONT'
p283
aS'LAS'
p284
as(S'SAN'
p285
S'IAD'
p286
tp287
(lp288
S'JFK'
p289
aS'GSP'
p290
aS'CRW'
p291
aS'BOS'
p292
aS'BGM'
p293
aS'CAE'
p294
aS'GSO'
p295
aS'SCE'
p296
aS'ROA'
p297
aS'ROC'
p298
aS'PVD'
p299
aS'PIT'
p300
aS'RIC'
p301
aS'MDT'
p302
aS'RDU'
p303
aS'TPA'
p304
aS'BDL'
p305
aS'SJU'
p306
aS'CHS'
p307
aS'CLT'
p308
aS'EWR'
p309
aS'CHO'
p310
aS'MCO'
p311
aS'BTV'
p312
aS'PHL'
p313
aS'BUF'
p314
aS'LGA'
p315
aS'ALB'
p316
aS'SAV'
p317
aS'SYR'
p318
aS'ORF'
p319
aS'PWM'
p320
aS'TYS'
p321
as(S'DFW'
p322
S'PHL'
p323
tp324
(lp325
S'SBY'
p326
aS'CMH'
p327
aS'BOS'
p328
aS'BGM'
p329
aS'CAK'
p330
aS'DTW'
p331
aS'ROC'
p332
aS'DCA'
p333
aS'BWI'
p334
aS'PIT'
p335
aS'DAY'
p336
aS'MDT'
p337
aS'ISP'
p338
aS'ELM'
p339
aS'IND'
p340
aS'HPN'
p341
aS'ITH'
p342
aS'HVN'
p343
aS'BUF'
p344
aS'LGA'
p345
aS'AVP'
p346
aS'ORF'
p347
as(S'IAH'
p348
S'SNA'
p349
tp350
(lp351
S'SFO'
p352
aS'LAX'
p353
as(S'IND'
p354
S'ORD'
p355
tp356
(lp357
S'CLT'
p358
aS'TPA'
p359
aS'PHL'
p360
as(S'IAH'
p361
S'CLT'
p362
tp363
(lp364
S'JFK'
p365
aS'GSP'
p366
aS'CMH'
p367
aS'MIA'
p368
aS'AVP'
p369
aS'ATL'
p370
aS'BOS'
p371
aS'OAJ'
p372
aS'MSP'
p373
aS'CAK'
p374
aS'FLL'
p375
aS'FLO'
p376
aS'CVG'
p377
aS'AGS'
p378
aS'CAE'
p379
aS'FAY'
p380
aS'JAX'
p381
aS'DAB'
p382
aS'DTW'
p383
aS'MYR'
p384
aS'DCA'
p385
aS'PGV'
p386
aS'BUF'
p387
aS'HSV'
p388
aS'PVD'
p389
aS'IAD'
p390
aS'BWI'
p391
aS'LYH'
p392
aS'RIC'
p393
aS'MDT'
p394
aS'RDU'
p395
aS'CHA'
p396
aS'ILM'
p397
aS'EWN'
p398
aS'TPA'
p399
aS'CLE'
p400
aS'CHO'
p401
aS'IND'
p402
aS'CHS'
p403
aS'HPN'
p404
aS'EWR'
p405
aS'BNA'
p406
aS'PBI'
p407
aS'MCO'
p408
aS'BHM'
p409
aS'PHL'
p410
aS'PIT'
p411
aS'LGA'
p412
aS'ALB'
p413
aS'PHF'
p414
aS'DAY'
p415
aS'AVL'
p416
aS'SYR'
p417
aS'SDF'
p418
aS'ORF'
p419
aS'ORD'
p420
aS'RSW'
p421
aS'TRI'
p422
as(S'MEM'
p423
S'ORD'
p424
tp425
(lp426
S'ROC'
p427
aS'BDL'
p428
aS'LGA'
p429
aS'RIC'
p430
aS'EWR'
p431
aS'BWI'
p432
aS'MSP'
p433
aS'DTW'
p434
aS'DAY'
p435
as(S'CLE'
p436
S'PHL'
p437
tp438
(lp439
S'GSP'
p440
aS'LGA'
p441
aS'ATL'
p442
aS'BOS'
p443
aS'SWF'
p444
aS'BGR'
p445
aS'FLL'
p446
aS'DCA'
p447
aS'PVD'
p448
aS'BWI'
p449
aS'RIC'
p450
aS'MDT'
p451
aS'RDU'
p452
aS'ISP'
p453
aS'IAH'
p454
aS'TPA'
p455
aS'BDL'
p456
aS'DFW'
p457
aS'SJU'
p458
aS'HPN'
p459
aS'EWR'
p460
aS'MHT'
p461
aS'PWM'
p462
aS'MCO'
p463
aS'BTV'
p464
aS'SBY'
p465
aS'ALB'
p466
aS'SFO'
p467
aS'PHX'
p468
aS'LAX'
p469
aS'ORF'
p470
aS'RSW'
p471
as(S'JFK'
p472
S'MCO'
p473
tp474
(lp475
S'MIA'
p476
aS'RSW'
p477
aS'PBI'
p478
aS'FLL'
p479
aS'TPA'
p480
as(S'DTW'
p481
S'MSN'
p482
tp483
(lp484
S'SFO'
p485
as(S'MCI'
p486
S'DAL'
p487
tp488
(lp489
S'HOU'
p490
as(S'CLE'
p491
S'LAX'
p492
tp493
(lp494
S'CLD'
p495
aS'SFO'
p496
aS'PSP'
p497
aS'SAN'
p498
aS'FAT'
p499
as(S'DCA'
p500
S'CVG'
p501
tp502
(lp503
S'MCO'
p504
aS'MKE'
p505
aS'STL'
p506
aS'LAX'
p507
aS'FLL'
p508
aS'BNA'
p509
aS'ORD'
p510
as(S'SFO'
p511
S'DFW'
p512
tp513
(lp514
S'MKE'
p515
aS'CID'
p516
aS'LIT'
p517
aS'FLL'
p518
aS'CVG'
p519
aS'CMH'
p520
aS'DCA'
p521
aS'CLE'
p522
aS'DAY'
p523
aS'IAH'
p524
aS'IAD'
p525
aS'AUS'
p526
aS'DSM'
p527
aS'CLT'
p528
aS'PBI'
p529
aS'GRK'
p530
aS'OMA'
p531
aS'MEM'
p532
aS'LGA'
p533
aS'IND'
p534
aS'RSW'
p535
aS'TYS'
p536
as(S'MSP'
p537
S'MCI'
p538
tp539
(lp540
S'SAN'
p541
aS'TPA'
p542
aS'STL'
p543
aS'DEN'
p544
aS'DAL'
p545
aS'LAX'
p546
aS'MSY'
p547
aS'IND'
p548
as(S'CLT'
p549
S'DCA'
p550
tp551
(lp552
S'ISP'
p553
aS'MHT'
p554
aS'LGA'
p555
aS'BTV'
p556
as(S'SLC'
p557
S'OAK'
p558
tp559
(lp560
S'BUR'
p561
aS'RNO'
p562
aS'ONT'
p563
aS'SNA'
p564
as(S'PHL'
p565
S'PHX'
p566
tp567
(lp568
S'LAX'
p569
aS'LAS'
p570
as(S'DTW'
p571
S'MSP'
p572
tp573
(lp574
S'FSD'
p575
aS'MSO'
p576
aS'BOI'
p577
aS'ISN'
p578
aS'DEN'
p579
aS'BZN'
p580
aS'SMF'
p581
aS'BIL'
p582
aS'SAN'
p583
aS'SFO'
p584
aS'FAR'
p585
aS'SEA'
p586
aS'GEG'
p587
aS'RAP'
p588
aS'LNK'
p589
aS'GTF'
p590
aS'PDX'
p591
aS'DFW'
p592
aS'ABQ'
p593
aS'SJC'
p594
aS'ICT'
p595
aS'OMA'
p596
aS'SNA'
p597
aS'TUS'
p598
aS'MOT'
p599
aS'GFK'
p600
aS'PHX'
p601
aS'RST'
p602
as(S'IAH'
p603
S'DCA'
p604
tp605
(lp606
S'EWR'
p607
aS'LGA'
p608
aS'BWI'
p609
as(S'XNA'
p610
S'ORD'
p611
tp612
(lp613
S'MKE'
p614
aS'CMH'
p615
aS'MIA'
p616
aS'BOS'
p617
aS'FWA'
p618
aS'MSP'
p619
aS'MSN'
p620
aS'CVG'
p621
aS'DTW'
p622
aS'DCA'
p623
aS'CLE'
p624
aS'BWI'
p625
aS'BUF'
p626
aS'RIC'
p627
aS'MDT'
p628
aS'BDL'
p629
aS'GRB'
p630
aS'HPN'
p631
aS'CLT'
p632
aS'PHL'
p633
aS'PIT'
p634
aS'LGA'
p635
aS'DAY'
p636
as(S'SAT'
p637
S'LAS'
p638
tp639
(lp640
S'SAN'
p641
aS'SEA'
p642
as(S'JAX'
p643
S'CLT'
p644
tp645
(lp646
S'JFK'
p647
aS'GSP'
p648
aS'MKE'
p649
aS'LGA'
p650
aS'MSY'
p651
aS'CMH'
p652
aS'AVP'
p653
aS'ATL'
p654
aS'BOS'
p655
aS'OAJ'
p656
aS'MSP'
p657
aS'CAK'
p658
aS'DEN'
p659
aS'CVG'
p660
aS'DTW'
p661
aS'GSO'
p662
aS'IAH'
p663
aS'ORF'
p664
aS'FAY'
p665
aS'ROA'
p666
aS'ROC'
p667
aS'DCA'
p668
aS'PGV'
p669
aS'BUF'
p670
aS'HSV'
p671
aS'PVD'
p672
aS'BDL'
p673
aS'BWI'
p674
aS'TYS'
p675
aS'PIT'
p676
aS'RIC'
p677
aS'MDT'
p678
aS'TRI'
p679
aS'ILM'
p680
aS'EWN'
p681
aS'STL'
p682
aS'IAD'
p683
aS'DFW'
p684
aS'CHO'
p685
aS'LEX'
p686
aS'HPN'
p687
aS'EWR'
p688
aS'BNA'
p689
aS'SLC'
p690
aS'BHM'
p691
aS'MCI'
p692
aS'PHL'
p693
aS'MEM'
p694
aS'LYH'
p695
aS'ABE'
p696
aS'SBY'
p697
aS'ALB'
p698
aS'PHF'
p699
aS'DAY'
p700
aS'SYR'
p701
aS'SDF'
p702
aS'IND'
p703
aS'ORD'
p704
aS'PWM'
p705
aS'RDU'
p706
aS'LAS'
p707
as(S'IAH'
p708
S'IAD'
p709
tp710
(lp711
S'BOS'
p712
aS'BTV'
p713
aS'BDL'
p714
aS'ROC'
p715
aS'ALB'
p716
aS'BGM'
p717
aS'DCA'
p718
aS'SYR'
p719
aS'PVD'
p720
aS'ROA'
p721
aS'ORF'
p722
aS'CHO'
p723
aS'PWM'
p724
aS'BUF'
p725
aS'DAY'
p726
aS'MDT'
p727
as(S'DEN'
p728
S'ORD'
p729
tp730
(lp731
S'RDU'
p732
aS'CLE'
p733
aS'MDT'
p734
aS'FLL'
p735
aS'SAV'
p736
aS'GSO'
p737
as(S'MDW'
p738
S'LAS'
p739
tp740
(lp741
S'BUR'
p742
as(S'DFW'
p743
S'HNL'
p744
tp745
(lp746
S'KOA'
p747
aS'OGG'
p748
aS'LIH'
p749
as(S'IAD'
p750
S'LAS'
p751
tp752
(lp753
S'SFO'
p754
aS'LAX'
p755
as(S'KOA'
p756
S'LAX'
p757
tp758
(lp759
S'SAN'
p760
aS'PDX'
p761
aS'CLD'
p762
aS'SFO'
p763
aS'PHX'
p764
aS'SEA'
p765
aS'SJC'
p766
aS'SMF'
p767
aS'LAS'
p768
as(S'EWR'
p769
S'ORD'
p770
tp771
(lp772
S'COS'
p773
aS'MSY'
p774
aS'CID'
p775
aS'MKE'
p776
aS'LIT'
p777
aS'MSN'
p778
aS'CVG'
p779
aS'ELP'
p780
aS'PIA'
p781
aS'AZO'
p782
aS'SPI'
p783
aS'HSV'
p784
aS'RAP'
p785
aS'SAT'
p786
aS'STL'
p787
aS'CLE'
p788
aS'MLI'
p789
aS'ABQ'
p790
aS'CWA'
p791
aS'RNO'
p792
aS'BNA'
p793
aS'IND'
p794
aS'ICT'
p795
aS'OMA'
p796
aS'BHM'
p797
aS'MCI'
p798
aS'BOI'
p799
aS'MEM'
p800
aS'SNA'
p801
aS'OKC'
p802
aS'PHX'
p803
aS'TUL'
p804
aS'LEX'
p805
aS'SBN'
p806
as(S'MCO'
p807
S'BOS'
p808
tp809
(lp810
S'PHL'
p811
as(S'MSY'
p812
S'EWR'
p813
tp814
(lp815
S'BOS'
p816
aS'BTV'
p817
aS'PVD'
p818
as(S'DFW'
p819
S'BOS'
p820
tp821
(lp822
S'JFK'
p823
aS'EWR'
p824
aS'BUF'
p825
aS'DCA'
p826
as(S'AUS'
p827
S'LAX'
p828
tp829
(lp830
S'SAN'
p831
aS'CLD'
p832
aS'OAK'
p833
aS'FAT'
p834
aS'SFO'
p835
aS'SBA'
p836
aS'SMF'
p837
aS'PSP'
p838
aS'LAS'
p839
as(S'MSY'
p840
S'IAH'
p841
tp842
(lp843
S'MKE'
p844
aS'CMH'
p845
aS'BOS'
p846
aS'FLL'
p847
aS'DEN'
p848
aS'DTW'
p849
aS'DAL'
p850
aS'BWI'
p851
aS'PIT'
p852
aS'SAT'
p853
aS'TPA'
p854
aS'STL'
p855
aS'DFW'
p856
aS'DSM'
p857
aS'CLT'
p858
aS'BNA'
p859
aS'MCO'
p860
aS'MCI'
p861
aS'PHL'
p862
aS'LGA'
p863
aS'PHX'
p864
aS'LAS'
p865
as(S'DTW'
p866
S'CLT'
p867
tp868
(lp869
S'GSP'
p870
aS'GNV'
p871
aS'FLO'
p872
aS'MSY'
p873
aS'MIA'
p874
aS'ATL'
p875
aS'ILM'
p876
aS'TPA'
p877
aS'OAJ'
p878
aS'LIT'
p879
aS'FLL'
p880
aS'DEN'
p881
aS'AGS'
p882
aS'CAE'
p883
aS'FAY'
p884
aS'SAN'
p885
aS'VPS'
p886
aS'MYR'
p887
aS'PGV'
p888
aS'HSV'
p889
aS'GSO'
p890
aS'LYH'
p891
aS'SAV'
p892
aS'RDU'
p893
aS'CHA'
p894
aS'EWN'
p895
aS'JAX'
p896
aS'DFW'
p897
aS'CHO'
p898
aS'CHS'
p899
aS'GPT'
p900
aS'BNA'
p901
aS'TLH'
p902
aS'PBI'
p903
aS'MCO'
p904
aS'DAB'
p905
aS'MCI'
p906
aS'MEM'
p907
aS'PNS'
p908
aS'PHF'
p909
aS'MGM'
p910
aS'RIC'
p911
aS'AVL'
p912
aS'SRQ'
p913
aS'ORF'
p914
aS'MOB'
p915
aS'RSW'
p916
aS'LAS'
p917
as(S'ATL'
p918
S'LAS'
p919
tp920
(lp921
S'RNO'
p922
aS'SAN'
p923
aS'SNA'
p924
aS'BUR'
p925
aS'TUS'
p926
aS'SFO'
p927
aS'SEA'
p928
aS'ONT'
p929
as(S'PHX'
p930
S'HOU'
p931
tp932
(lp933
S'GSP'
p934
aS'BHM'
p935
aS'MSY'
p936
aS'JAX'
p937
aS'DAL'
p938
aS'ATL'
p939
aS'CHS'
p940
aS'CLT'
p941
as(S'DTW'
p942
S'PBI'
p943
tp944
(lp945
S'FLL'
p946
as(S'STL'
p947
S'PHX'
p948
tp949
(lp950
S'SAN'
p951
aS'LAS'
p952
as(S'DFW'
p953
S'OGG'
p954
tp955
(lp956
S'HNL'
p957
as(S'DEN'
p958
S'LGA'
p959
tp960
(lp961
S'JFK'
p962
aS'ROC'
p963
aS'SYR'
p964
aS'MHT'
p965
aS'PWM'
p966
aS'BUF'
p967
as(S'RDU'
p968
S'MEM'
p969
tp970
(lp971
S'MCI'
p972
aS'STL'
p973
aS'DFW'
p974
aS'LAX'
p975
aS'DEN'
p976
aS'LAS'
p977
as(S'PHL'
p978
S'TPA'
p979
tp980
(lp981
S'PBI'
p982
aS'BHM'
p983
aS'FLL'
p984
as(S'BDL'
p985
S'ORD'
p986
tp987
(lp988
S'OMA'
p989
aS'SGF'
p990
aS'MCI'
p991
aS'STL'
p992
aS'LAS'
p993
aS'OKC'
p994
aS'MKE'
p995
aS'MEM'
p996
aS'AUS'
p997
aS'PHX'
p998
aS'LAX'
p999
aS'DEN'
p1000
aS'IND'
p1001
aS'TUL'
p1002
aS'BNA'
p1003
aS'SLC'
p1004
aS'SBN'
p1005
aS'IAH'
p1006
aS'SAT'
p1007
as(S'MEM'
p1008
S'CLT'
p1009
tp1010
(lp1011
S'EWN'
p1012
aS'TPA'
p1013
aS'AGS'
p1014
aS'ATL'
p1015
aS'LGA'
p1016
aS'JAX'
p1017
aS'OAJ'
p1018
aS'PBI'
p1019
aS'PIT'
p1020
as(S'PHL'
p1021
S'JFK'
p1022
tp1023
(lp1024
S'MCO'
p1025
aS'SAN'
p1026
aS'TPA'
p1027
aS'PDX'
p1028
aS'BOS'
p1029
aS'SJU'
p1030
aS'LAX'
p1031
aS'FLL'
p1032
aS'PIT'
p1033
aS'LAS'
p1034
as(S'SJC'
p1035
S'AUS'
p1036
tp1037
(lp1038
S'MCO'
p1039
aS'DAL'
p1040
aS'FLL'
p1041
as(S'DTW'
p1042
S'ATL'
p1043
tp1044
(lp1045
S'MLB'
p1046
aS'MCO'
p1047
aS'GNV'
p1048
aS'DAB'
p1049
aS'TPA'
p1050
aS'MIA'
p1051
aS'AGS'
p1052
aS'MYR'
p1053
aS'MEM'
p1054
aS'SRQ'
p1055
aS'LAX'
p1056
aS'FLL'
p1057
aS'DEN'
p1058
aS'GPT'
p1059
aS'RSW'
p1060
aS'PBI'
p1061
aS'MSY'
p1062
aS'LAS'
p1063
as(S'BNA'
p1064
S'DFW'
p1065
tp1066
(lp1067
S'COS'
p1068
aS'CRP'
p1069
aS'DEN'
p1070
aS'ACT'
p1071
aS'IAH'
p1072
aS'SAN'
p1073
aS'LFT'
p1074
aS'LBB'
p1075
aS'SEA'
p1076
aS'SAT'
p1077
aS'CLL'
p1078
aS'MHK'
p1079
aS'SHV'
p1080
aS'SJU'
p1081
aS'ABQ'
p1082
aS'AUS'
p1083
aS'GRK'
p1084
aS'SLC'
p1085
aS'SNA'
p1086
aS'OKC'
p1087
aS'PHX'
p1088
aS'LAX'
p1089
aS'PSP'
p1090
aS'TYR'
p1091
aS'LAS'
p1092
as(S'BOS'
p1093
S'SEA'
p1094
tp1095
(lp1096
S'SFO'
p1097
as(S'LAX'
p1098
S'IAH'
p1099
tp1100
(lp1101
S'RDU'
p1102
aS'MKE'
p1103
aS'LGA'
p1104
aS'CRW'
p1105
aS'MSY'
p1106
aS'CMH'
p1107
aS'AEX'
p1108
aS'ATL'
p1109
aS'BOS'
p1110
aS'MSP'
p1111
aS'LIT'
p1112
aS'GPT'
p1113
aS'FLL'
p1114
aS'CVG'
p1115
aS'DTW'
p1116
aS'DAL'
p1117
aS'DCA'
p1118
aS'BWI'
p1119
aS'PIT'
p1120
aS'SAV'
p1121
aS'CLL'
p1122
aS'JAX'
p1123
aS'STL'
p1124
aS'CLE'
p1125
aS'DFW'
p1126
aS'ORF'
p1127
aS'DSM'
p1128
aS'MLU'
p1129
aS'CLT'
p1130
aS'PBI'
p1131
aS'ICT'
p1132
aS'MCO'
p1133
aS'OMA'
p1134
aS'MCI'
p1135
aS'BTR'
p1136
aS'MEM'
p1137
aS'PNS'
p1138
aS'PHL'
p1139
aS'RIC'
p1140
aS'IND'
p1141
aS'RSW'
p1142
aS'TYS'
p1143
as(S'CVG'
p1144
S'MCO'
p1145
tp1146
(lp1147
S'TPA'
p1148
as(S'LAX'
p1149
S'IAD'
p1150
tp1151
(lp1152
S'JFK'
p1153
aS'CRW'
p1154
aS'BOS'
p1155
aS'BGM'
p1156
aS'CAE'
p1157
aS'FAY'
p1158
aS'SCE'
p1159
aS'ROC'
p1160
aS'DCA'
p1161
aS'GSO'
p1162
aS'BWI'
p1163
aS'PIT'
p1164
aS'RIC'
p1165
aS'MDT'
p1166
aS'PVD'
p1167
aS'RDU'
p1168
aS'JAX'
p1169
aS'BDL'
p1170
aS'SJU'
p1171
aS'CHS'
p1172
aS'CLT'
p1173
aS'EWR'
p1174
aS'CHO'
p1175
aS'BTV'
p1176
aS'PHL'
p1177
aS'BUF'
p1178
aS'LGA'
p1179
aS'ALB'
p1180
aS'SAV'
p1181
aS'SYR'
p1182
aS'ORF'
p1183
aS'PWM'
p1184
as(S'DTW'
p1185
S'BNA'
p1186
tp1187
(lp1188
S'MSY'
p1189
aS'FLL'
p1190
aS'TPA'
p1191
as(S'SEA'
p1192
S'LAS'
p1193
tp1194
(lp1195
S'BUR'
p1196
aS'PHX'
p1197
aS'SAN'
p1198
aS'ONT'
p1199
aS'SNA'
p1200
as(S'CLE'
p1201
S'DFW'
p1202
tp1203
(lp1204
S'COS'
p1205
aS'MSY'
p1206
aS'DEN'
p1207
aS'SMF'
p1208
aS'SAN'
p1209
aS'LBB'
p1210
aS'SEA'
p1211
aS'TUL'
p1212
aS'ONT'
p1213
aS'SAT'
p1214
aS'IAH'
p1215
aS'PDX'
p1216
aS'ABQ'
p1217
aS'AUS'
p1218
aS'SJC'
p1219
aS'ELP'
p1220
aS'GRK'
p1221
aS'SLC'
p1222
aS'SNA'
p1223
aS'TUS'
p1224
aS'SFO'
p1225
aS'OKC'
p1226
aS'PHX'
p1227
aS'LAX'
p1228
aS'PSP'
p1229
aS'LAS'
p1230
as(S'FLL'
p1231
S'PHL'
p1232
tp1233
(lp1234
S'LGA'
p1235
aS'SBY'
p1236
aS'PVD'
p1237
aS'ELM'
p1238
as(S'RDU'
p1239
S'LAX'
p1240
tp1241
(lp1242
S'SAN'
p1243
aS'LAS'
p1244
as(S'ATL'
p1245
S'PDX'
p1246
tp1247
(lp1248
S'SEA'
p1249
as(S'DTW'
p1250
S'CVG'
p1251
tp1252
(lp1253
S'TPA'
p1254
as(S'LGA'
p1255
S'MKE'
p1256
tp1257
(lp1258
S'MCO'
p1259
aS'LAX'
p1260
aS'MSY'
p1261
aS'DEN'
p1262
aS'TPA'
p1263
as(S'DFW'
p1264
S'PHX'
p1265
tp1266
(lp1267
S'BUR'
p1268
aS'SAN'
p1269
aS'SNA'
p1270
aS'LGB'
p1271
aS'TUS'
p1272
aS'SFO'
p1273
aS'LAX'
p1274
aS'LAS'
p1275
aS'ONT'
p1276
aS'SLC'
p1277
as(S'EWR'
p1278
S'BWI'
p1279
tp1280
(lp1281
S'MCO'
p1282
aS'RDU'
p1283
aS'TPA'
p1284
aS'JAX'
p1285
aS'ATL'
p1286
aS'DTW'
p1287
as(S'ORD'
p1288
S'IAD'
p1289
tp1290
(lp1291
S'JFK'
p1292
aS'MCO'
p1293
aS'FAY'
p1294
aS'BGM'
p1295
aS'DCA'
p1296
aS'FLL'
p1297
aS'PVD'
p1298
as(S'MSP'
p1299
S'DTW'
p1300
tp1301
(lp1302
S'GSP'
p1303
aS'MSY'
p1304
aS'AZO'
p1305
aS'MIA'
p1306
aS'ALB'
p1307
aS'FWA'
p1308
aS'SWF'
p1309
aS'CAK'
p1310
aS'BGR'
p1311
aS'FLL'
p1312
aS'ERI'
p1313
aS'GSO'
p1314
aS'SCE'
p1315
aS'ROA'
p1316
aS'ROC'
p1317
aS'HSV'
p1318
aS'PVD'
p1319
aS'BWI'
p1320
aS'RSW'
p1321
aS'BUF'
p1322
aS'RIC'
p1323
aS'MDT'
p1324
aS'RDU'
p1325
aS'ABE'
p1326
aS'TPA'
p1327
aS'ELM'
p1328
aS'CLE'
p1329
aS'BGM'
p1330
aS'LEX'
p1331
aS'CHS'
p1332
aS'HPN'
p1333
aS'MHT'
p1334
aS'PBI'
p1335
aS'MCO'
p1336
aS'LIT'
p1337
aS'LAN'
p1338
aS'BTV'
p1339
aS'BHM'
p1340
aS'ITH'
p1341
aS'AVP'
p1342
aS'SAV'
p1343
aS'AVL'
p1344
aS'SYR'
p1345
aS'ORF'
p1346
aS'PWM'
p1347
aS'SBN'
p1348
aS'TYS'
p1349
as(S'AUS'
p1350
S'TPA'
p1351
tp1352
(lp1353
S'FLL'
p1354
as(S'MSP'
p1355
S'SNA'
p1356
tp1357
(lp1358
S'LAX'
p1359
as(S'IAH'
p1360
S'SFO'
p1361
tp1362
(lp1363
S'RNO'
p1364
aS'MRY'
p1365
aS'SNA'
p1366
aS'BUR'
p1367
aS'EUG'
p1368
aS'PDX'
p1369
aS'FAT'
p1370
aS'RDD'
p1371
aS'SBA'
p1372
aS'BOI'
p1373
aS'SEA'
p1374
aS'SMF'
p1375
aS'ONT'
p1376
as(S'IAD'
p1377
S'IAH'
p1378
tp1379
(lp1380
S'CRP'
p1381
aS'MFE'
p1382
aS'BTR'
p1383
aS'TUS'
p1384
aS'SNA'
p1385
aS'AUS'
p1386
aS'SJC'
p1387
aS'SAT'
p1388
aS'ONT'
p1389
aS'LAS'
p1390
as(S'DTW'
p1391
S'IND'
p1392
tp1393
(lp1394
S'LAX'
p1395
aS'SEA'
p1396
as(S'EWR'
p1397
S'CLE'
p1398
tp1399
(lp1400
S'MKE'
p1401
aS'FNT'
p1402
aS'MCI'
p1403
aS'STL'
p1404
aS'SDF'
p1405
aS'IND'
p1406
aS'ERI'
p1407
as(S'PHL'
p1408
S'RDU'
p1409
tp1410
(lp1411
S'MCO'
p1412
aS'TPA'
p1413
as(S'SEA'
p1414
S'MCI'
p1415
tp1416
(lp1417
S'MCO'
p1418
aS'STL'
p1419
aS'DAL'
p1420
as(S'IAD'
p1421
S'ATL'
p1422
tp1423
(lp1424
S'MKE'
p1425
aS'MIA'
p1426
aS'LIT'
p1427
aS'FLL'
p1428
aS'AGS'
p1429
aS'DAB'
p1430
aS'MYR'
p1431
aS'MLB'
p1432
aS'CHA'
p1433
aS'TPA'
p1434
aS'JAN'
p1435
aS'DSM'
p1436
aS'GPT'
p1437
aS'ELP'
p1438
aS'PBI'
p1439
aS'ICT'
p1440
aS'MCO'
p1441
aS'OMA'
p1442
aS'BHM'
p1443
aS'VPS'
p1444
aS'MCI'
p1445
aS'BTR'
p1446
aS'SRQ'
p1447
aS'RSW'
p1448
as(S'OMA'
p1449
S'MSP'
p1450
tp1451
(lp1452
S'MKE'
p1453
aS'LGA'
p1454
aS'CMH'
p1455
aS'BDL'
p1456
aS'BOS'
p1457
aS'MSN'
p1458
aS'DEN'
p1459
aS'SMF'
p1460
aS'CVG'
p1461
aS'DTW'
p1462
aS'SAN'
p1463
aS'FAR'
p1464
aS'DAY'
p1465
aS'DCA'
p1466
aS'GEG'
p1467
aS'SEA'
p1468
aS'IAD'
p1469
aS'BWI'
p1470
aS'PHL'
p1471
aS'PIT'
p1472
aS'BIS'
p1473
aS'SAT'
p1474
aS'RDU'
p1475
aS'GRR'
p1476
aS'TPA'
p1477
aS'PDX'
p1478
aS'STL'
p1479
aS'CLE'
p1480
aS'DFW'
p1481
aS'AUS'
p1482
aS'GRB'
p1483
aS'CLT'
p1484
aS'EWR'
p1485
aS'BNA'
p1486
aS'ATW'
p1487
aS'SLC'
p1488
aS'MCO'
p1489
aS'ANC'
p1490
aS'MEM'
p1491
aS'SNA'
p1492
aS'MOT'
p1493
aS'SFO'
p1494
aS'SDF'
p1495
aS'PHX'
p1496
aS'LAX'
p1497
aS'IND'
p1498
aS'ORD'
p1499
aS'LAS'
p1500
as(S'SFO'
p1501
S'PHX'
p1502
tp1503
(lp1504
S'LAS'
p1505
as(S'SNA'
p1506
S'LAS'
p1507
tp1508
(lp1509
S'SEA'
p1510
aS'SLC'
p1511
as(S'SEA'
p1512
S'DTW'
p1513
tp1514
(lp1515
S'GSP'
p1516
aS'MKE'
p1517
aS'CMH'
p1518
aS'BOS'
p1519
aS'BGM'
p1520
aS'CAK'
p1521
aS'MSN'
p1522
aS'FLL'
p1523
aS'MHT'
p1524
aS'EVV'
p1525
aS'ROA'
p1526
aS'ROC'
p1527
aS'DCA'
p1528
aS'PVD'
p1529
aS'IAD'
p1530
aS'BDL'
p1531
aS'BWI'
p1532
aS'BUF'
p1533
aS'DAY'
p1534
aS'TVC'
p1535
aS'RDU'
p1536
aS'GRR'
p1537
aS'TPA'
p1538
aS'ELM'
p1539
aS'CLE'
p1540
aS'FWA'
p1541
aS'LEX'
p1542
aS'GSO'
p1543
aS'CLT'
p1544
aS'BNA'
p1545
aS'IND'
p1546
aS'MCO'
p1547
aS'ITH'
p1548
aS'PHL'
p1549
aS'MEM'
p1550
aS'PIT'
p1551
aS'LGA'
p1552
aS'RIC'
p1553
aS'AVL'
p1554
aS'SYR'
p1555
aS'SDF'
p1556
aS'MDT'
p1557
aS'ORF'
p1558
aS'ORD'
p1559
aS'SBN'
p1560
aS'TYS'
p1561
as(S'MCO'
p1562
S'CLE'
p1563
tp1564
(lp1565
S'MSN'
p1566
aS'MKE'
p1567
aS'FNT'
p1568
aS'GRR'
p1569
aS'ROC'
p1570
aS'CMH'
p1571
aS'BDL'
p1572
aS'LGA'
p1573
aS'ALB'
p1574
aS'ERI'
p1575
aS'SYR'
p1576
aS'BTV'
p1577
aS'PVD'
p1578
aS'IND'
p1579
aS'MHT'
p1580
aS'BUF'
p1581
aS'DAY'
p1582
aS'ORD'
p1583
as(S'ATL'
p1584
S'PBI'
p1585
tp1586
(lp1587
S'MIA'
p1588
aS'FLL'
p1589
as(S'ORD'
p1590
S'OKC'
p1591
tp1592
(lp1593
S'LAX'
p1594
as(S'BUR'
p1595
S'SJC'
p1596
tp1597
(lp1598
S'PDX'
p1599
as(S'LAX'
p1600
S'OGG'
p1601
tp1602
(lp1603
S'KOA'
p1604
aS'LIH'
p1605
aS'HNL'
p1606
as(S'STL'
p1607
S'CLT'
p1608
tp1609
(lp1610
S'JFK'
p1611
aS'GNV'
p1612
aS'MIA'
p1613
aS'ATL'
p1614
aS'ILM'
p1615
aS'OAJ'
p1616
aS'FLL'
p1617
aS'FLO'
p1618
aS'AGS'
p1619
aS'GSO'
p1620
aS'FAY'
p1621
aS'JAX'
p1622
aS'DAB'
p1623
aS'DCA'
p1624
aS'PGV'
p1625
aS'CLE'
p1626
aS'BWI'
p1627
aS'PIT'
p1628
aS'RDU'
p1629
aS'EWN'
p1630
aS'TPA'
p1631
aS'IAD'
p1632
aS'CHO'
p1633
aS'EWR'
p1634
aS'PBI'
p1635
aS'MCO'
p1636
aS'VPS'
p1637
aS'LGA'
p1638
aS'RSW'
p1639
as(S'MDW'
p1640
S'OKC'
p1641
tp1642
(lp1643
S'DAL'
p1644
as(S'LAX'
p1645
S'DEN'
p1646
tp1647
(lp1648
S'BIL'
p1649
as(S'PHL'
p1650
S'ORD'
p1651
tp1652
(lp1653
S'ALO'
p1654
aS'MKE'
p1655
aS'SAN'
p1656
aS'MSY'
p1657
aS'CMH'
p1658
aS'STL'
p1659
aS'SDF'
p1660
aS'MSN'
p1661
aS'AUS'
p1662
aS'IND'
p1663
aS'MCI'
p1664
aS'BNA'
p1665
aS'DAY'
p1666
aS'SAT'
p1667
as(S'PHX'
p1668
S'PHL'
p1669
tp1670
(lp1671
S'LGA'
p1672
aS'ITH'
p1673
aS'HVN'
p1674
aS'ELM'
p1675
aS'BGM'
p1676
aS'ERI'
p1677
aS'CAK'
p1678
aS'SYR'
p1679
aS'PVD'
p1680
aS'ORF'
p1681
aS'MHT'
p1682
aS'BUF'
p1683
aS'RIC'
p1684
aS'MDT'
p1685
as(S'DTW'
p1686
S'MKE'
p1687
tp1688
(lp1689
S'LAX'
p1690
as(S'JFK'
p1691
S'SLC'
p1692
tp1693
(lp1694
S'SAN'
p1695
aS'SNA'
p1696
aS'BUR'
p1697
aS'GJT'
p1698
aS'TUS'
p1699
aS'OAK'
p1700
aS'FAT'
p1701
aS'ABQ'
p1702
aS'PHX'
p1703
aS'LGB'
p1704
aS'SEA'
p1705
aS'SFO'
p1706
aS'PSP'
p1707
aS'ONT'
p1708
aS'LAS'
p1709
as(S'CVG'
p1710
S'MSP'
p1711
tp1712
(lp1713
S'LAX'
p1714
aS'OMA'
p1715
aS'PHX'
p1716
aS'FSD'
p1717
aS'DEN'
p1718
aS'RAP'
p1719
aS'SFO'
p1720
aS'SNA'
p1721
aS'ABQ'
p1722
aS'PDX'
p1723
aS'SEA'
p1724
aS'GEG'
p1725
aS'LNK'
p1726
aS'BZN'
p1727
aS'RST'
p1728
aS'GRB'
p1729
aS'LAS'
p1730
aS'BIS'
p1731
aS'SAN'
p1732
as(S'MSP'
p1733
S'PHX'
p1734
tp1735
(lp1736
S'LAS'
p1737
as(S'IAD'
p1738
S'CLT'
p1739
tp1740
(lp1741
S'GSP'
p1742
aS'MKE'
p1743
aS'GNV'
p1744
aS'MIA'
p1745
aS'ATL'
p1746
aS'ILM'
p1747
aS'OAK'
p1748
aS'FLL'
p1749
aS'DEN'
p1750
aS'GSO'
p1751
aS'SAN'
p1752
aS'DAB'
p1753
aS'MYR'
p1754
aS'MLB'
p1755
aS'IAH'
p1756
aS'TPA'
p1757
aS'STL'
p1758
aS'DFW'
p1759
aS'SJU'
p1760
aS'STT'
p1761
aS'SRQ'
p1762
aS'GPT'
p1763
aS'PBI'
p1764
aS'MCO'
p1765
aS'BHM'
p1766
aS'MCI'
p1767
aS'SDF'
p1768
aS'LEX'
p1769
aS'MOB'
p1770
aS'ORD'
p1771
aS'RSW'
p1772
aS'LAS'
p1773
as(S'TPA'
p1774
S'ORD'
p1775
tp1776
(lp1777
S'BOS'
p1778
aS'MKE'
p1779
aS'FNT'
p1780
aS'GRR'
p1781
aS'LAN'
p1782
aS'MCI'
p1783
aS'AZO'
p1784
aS'STL'
p1785
aS'PIT'
p1786
aS'LGA'
p1787
aS'SYR'
p1788
aS'MSP'
p1789
aS'MSN'
p1790
aS'SDF'
p1791
aS'DSM'
p1792
aS'CMH'
p1793
aS'IND'
p1794
aS'DTW'
p1795
aS'DAY'
p1796
aS'TVC'
p1797
aS'LAS'
p1798
as(S'BOS'
p1799
S'TPA'
p1800
tp1801
(lp1802
S'RSW'
p1803
as(S'SJC'
p1804
S'PHX'
p1805
tp1806
(lp1807
S'SAN'
p1808
aS'LAS'
p1809
as(S'PDX'
p1810
S'ORD'
p1811
tp1812
(lp1813
S'MCO'
p1814
aS'BOS'
p1815
aS'JAX'
p1816
aS'TPA'
p1817
aS'CID'
p1818
aS'STL'
p1819
aS'LGA'
p1820
aS'MSP'
p1821
aS'MSN'
p1822
aS'BWI'
p1823
aS'DSM'
p1824
aS'CWA'
p1825
aS'HPN'
p1826
aS'CMX'
p1827
aS'CLT'
p1828
aS'MCI'
p1829
aS'PHL'
p1830
aS'BUF'
p1831
as(S'PHX'
p1832
S'SFO'
p1833
tp1834
(lp1835
S'RDM'
p1836
aS'MFR'
p1837
aS'EUG'
p1838
aS'SEA'
p1839
as(S'STL'
p1840
S'LAX'
p1841
tp1842
(lp1843
S'SAN'
p1844
aS'FAT'
p1845
aS'LAS'
p1846
as(S'DFW'
p1847
S'FLL'
p1848
tp1849
(lp1850
S'MCO'
p1851
aS'TPA'
p1852
aS'SJU'
p1853
as(S'SLC'
p1854
S'CLT'
p1855
tp1856
(lp1857
S'RDU'
p1858
aS'MCO'
p1859
aS'BOS'
p1860
aS'TPA'
p1861
aS'PHL'
p1862
aS'IAD'
p1863
aS'ATL'
p1864
aS'LGA'
p1865
aS'DCA'
p1866
aS'FLL'
p1867
aS'JFK'
p1868
aS'EWR'
p1869
aS'BWI'
p1870
aS'DTW'
p1871
aS'PIT'
p1872
as(S'DTW'
p1873
S'EWR'
p1874
tp1875
(lp1876
S'MCO'
p1877
aS'SJU'
p1878
aS'BOS'
p1879
aS'LGA'
p1880
as(S'ORD'
p1881
S'PDX'
p1882
tp1883
(lp1884
S'EUG'
p1885
aS'SEA'
p1886
as(S'LAX'
p1887
S'AUS'
p1888
tp1889
(lp1890
S'MCO'
p1891
aS'IAH'
p1892
aS'TPA'
p1893
aS'DAL'
p1894
aS'DFW'
p1895
aS'FLL'
p1896
as(S'EWR'
p1897
S'DTW'
p1898
tp1899
(lp1900
S'MKE'
p1901
aS'FNT'
p1902
aS'CID'
p1903
aS'MSN'
p1904
aS'EVV'
p1905
aS'AZO'
p1906
aS'IAH'
p1907
aS'STL'
p1908
aS'MLI'
p1909
aS'IND'
p1910
aS'DSM'
p1911
aS'SLC'
p1912
aS'MCO'
p1913
aS'BHM'
p1914
aS'MCI'
p1915
aS'MEM'
p1916
aS'SFO'
p1917
aS'PHX'
p1918
aS'LAX'
p1919
aS'LEX'
p1920
aS'ORD'
p1921
aS'SBN'
p1922
aS'LAS'
p1923
as(S'CLE'
p1924
S'CLT'
p1925
tp1926
(lp1927
S'RDU'
p1928
aS'GSP'
p1929
aS'SJU'
p1930
aS'GNV'
p1931
aS'FLO'
p1932
aS'MSY'
p1933
aS'MIA'
p1934
aS'ATL'
p1935
aS'ILM'
p1936
aS'OAJ'
p1937
aS'FLL'
p1938
aS'DEN'
p1939
aS'AGS'
p1940
aS'IAH'
p1941
aS'FAY'
p1942
aS'JAX'
p1943
aS'DAB'
p1944
aS'ROA'
p1945
aS'MYR'
p1946
aS'PGV'
p1947
aS'PHX'
p1948
aS'HSV'
p1949
aS'LYH'
p1950
aS'SAV'
p1951
aS'MLB'
p1952
aS'CHA'
p1953
aS'EWN'
p1954
aS'TPA'
p1955
aS'STL'
p1956
aS'DFW'
p1957
aS'CHO'
p1958
aS'SRQ'
p1959
aS'BNA'
p1960
aS'TLH'
p1961
aS'PBI'
p1962
aS'SLC'
p1963
aS'MCO'
p1964
aS'BHM'
p1965
aS'MCI'
p1966
aS'MEM'
p1967
aS'PHF'
p1968
aS'RIC'
p1969
aS'CHS'
p1970
aS'ORF'
p1971
aS'RSW'
p1972
aS'LAS'
p1973
as(S'DCA'
p1974
S'DTW'
p1975
tp1976
(lp1977
S'MCO'
p1978
aS'LAN'
p1979
aS'FNT'
p1980
aS'BHM'
p1981
aS'MCI'
p1982
aS'CMH'
p1983
aS'STL'
p1984
aS'PIA'
p1985
aS'MLI'
p1986
aS'MKE'
p1987
aS'CAK'
p1988
aS'MSN'
p1989
aS'SDF'
p1990
aS'DSM'
p1991
aS'GRB'
p1992
aS'OMA'
p1993
aS'ORD'
p1994
aS'MDW'
p1995
aS'EVV'
p1996
as(S'OKC'
p1997
S'BWI'
p1998
tp1999
(lp2000
S'MCO'
p2001
as(S'EWR'
p2002
S'LAS'
p2003
tp2004
(lp2005
S'LAX'
p2006
as(S'MKE'
p2007
S'LAS'
p2008
tp2009
(lp2010
S'SFO'
p2011
aS'LAX'
p2012
aS'ABQ'
p2013
as(S'TPA'
p2014
S'ATL'
p2015
tp2016
(lp2017
S'MKE'
p2018
aS'FNT'
p2019
aS'MSY'
p2020
aS'CMH'
p2021
aS'BOS'
p2022
aS'OAJ'
p2023
aS'CAK'
p2024
aS'CLT'
p2025
aS'DEN'
p2026
aS'DTW'
p2027
aS'MHT'
p2028
aS'GSO'
p2029
aS'FAY'
p2030
aS'DAL'
p2031
aS'ROC'
p2032
aS'DCA'
p2033
aS'PVD'
p2034
aS'IAD'
p2035
aS'BWI'
p2036
aS'PHL'
p2037
aS'BUF'
p2038
aS'MDW'
p2039
aS'SAT'
p2040
aS'RDU'
p2041
aS'MYR'
p2042
aS'ILM'
p2043
aS'GRR'
p2044
aS'EWN'
p2045
aS'STL'
p2046
aS'BDL'
p2047
aS'DFW'
p2048
aS'STT'
p2049
aS'ABQ'
p2050
aS'AUS'
p2051
aS'BKG'
p2052
aS'HPN'
p2053
aS'GPT'
p2054
aS'EWR'
p2055
aS'BNA'
p2056
aS'IND'
p2057
aS'GRK'
p2058
aS'BHM'
p2059
aS'MCI'
p2060
aS'BTR'
p2061
aS'MEM'
p2062
aS'PIT'
p2063
aS'LGA'
p2064
aS'ALB'
p2065
aS'PHF'
p2066
aS'CLE'
p2067
aS'DAY'
p2068
aS'SYR'
p2069
aS'SDF'
p2070
aS'ORF'
p2071
aS'PWM'
p2072
as(S'DTW'
p2073
S'SEA'
p2074
tp2075
(lp2076
S'PDX'
p2077
as(S'LGA'
p2078
S'BNA'
p2079
tp2080
(lp2081
S'MCO'
p2082
aS'MSY'
p2083
aS'JAX'
p2084
aS'CMH'
p2085
aS'MEM'
p2086
aS'TPA'
p2087
aS'AUS'
p2088
aS'HOU'
p2089
aS'MDW'
p2090
aS'SAT'
p2091
as(S'MCO'
p2092
S'IAH'
p2093
tp2094
(lp2095
S'COS'
p2096
aS'MSY'
p2097
aS'AEX'
p2098
aS'MKE'
p2099
aS'LIT'
p2100
aS'DEN'
p2101
aS'SAN'
p2102
aS'DAL'
p2103
aS'SEA'
p2104
aS'SAT'
p2105
aS'STL'
p2106
aS'DFW'
p2107
aS'BFL'
p2108
aS'ABQ'
p2109
aS'AUS'
p2110
aS'DSM'
p2111
aS'GPT'
p2112
aS'GRK'
p2113
aS'ICT'
p2114
aS'OMA'
p2115
aS'MCI'
p2116
aS'BTR'
p2117
aS'OKC'
p2118
aS'PHX'
p2119
as(S'MEM'
p2120
S'DTW'
p2121
tp2122
(lp2123
S'ROC'
p2124
aS'AVP'
p2125
aS'PHL'
p2126
aS'CLE'
p2127
aS'LGA'
p2128
aS'ALB'
p2129
aS'BWI'
p2130
aS'FNT'
p2131
aS'PVD'
p2132
aS'BDL'
p2133
aS'EWR'
p2134
aS'PWM'
p2135
aS'BUF'
p2136
aS'RIC'
p2137
aS'MBS'
p2138
as(S'IAH'
p2139
S'DEN'
p2140
tp2141
(lp2142
S'OMA'
p2143
aS'FSD'
p2144
aS'SAN'
p2145
aS'MCI'
p2146
aS'SNA'
p2147
aS'SFO'
p2148
aS'PHX'
p2149
aS'LAX'
p2150
aS'SEA'
p2151
aS'LAS'
p2152
as(S'BWI'
p2153
S'STL'
p2154
tp2155
(lp2156
S'DAL'
p2157
aS'MSP'
p2158
as(S'DCA'
p2159
S'IAH'
p2160
tp2161
(lp2162
S'CRP'
p2163
aS'MSY'
p2164
aS'MFE'
p2165
aS'BTR'
p2166
aS'LFT'
p2167
aS'SLC'
p2168
aS'ONT'
p2169
aS'SAT'
p2170
aS'PDX'
p2171
aS'BFL'
p2172
aS'JAN'
p2173
aS'ABQ'
p2174
aS'AUS'
p2175
aS'GPT'
p2176
aS'SJC'
p2177
aS'ELP'
p2178
aS'ICT'
p2179
aS'OMA'
p2180
aS'LRD'
p2181
aS'SNA'
p2182
aS'TUS'
p2183
aS'OKC'
p2184
aS'PHX'
p2185
aS'LAX'
p2186
aS'LAS'
p2187
as(S'ELP'
p2188
S'HOU'
p2189
tp2190
(lp2191
S'IND'
p2192
aS'BWI'
p2193
aS'CRP'
p2194
as(S'ATL'
p2195
S'CLE'
p2196
tp2197
(lp2198
S'LGA'
p2199
aS'ERI'
p2200
aS'MSP'
p2201
as(S'ATL'
p2202
S'MKE'
p2203
tp2204
(lp2205
S'LGA'
p2206
as(S'SEA'
p2207
S'DCA'
p2208
tp2209
(lp2210
S'EWR'
p2211
as(S'DEN'
p2212
S'BWI'
p2213
tp2214
(lp2215
S'ISP'
p2216
aS'PBI'
p2217
aS'BOS'
p2218
aS'CHS'
p2219
aS'ORF'
p2220
aS'MHT'
p2221
aS'PWM'
p2222
aS'BUF'
p2223
as(S'IAH'
p2224
S'SLC'
p2225
tp2226
(lp2227
S'SFO'
p2228
aS'LAX'
p2229
aS'BIL'
p2230
aS'SAN'
p2231
aS'PDX'
p2232
aS'PSC'
p2233
aS'OAK'
p2234
aS'FCA'
p2235
aS'FAT'
p2236
aS'BOI'
p2237
aS'GEG'
p2238
aS'SEA'
p2239
aS'SMF'
p2240
aS'BTM'
p2241
aS'BZN'
p2242
aS'IDA'
p2243
aS'JAC'
p2244
aS'LAS'
p2245
as(S'ELP'
p2246
S'LAX'
p2247
tp2248
(lp2249
S'LAS'
p2250
as(S'MCO'
p2251
S'MSP'
p2252
tp2253
(lp2254
S'MKE'
p2255
aS'GRR'
p2256
aS'SAN'
p2257
aS'OMA'
p2258
aS'MSN'
p2259
aS'DSM'
p2260
aS'LNK'
p2261
as(S'ATL'
p2262
S'PHL'
p2263
tp2264
(lp2265
S'JFK'
p2266
aS'ELM'
p2267
aS'SBY'
p2268
aS'BGM'
p2269
aS'ORF'
p2270
aS'BWI'
p2271
as(S'DFW'
p2272
S'BNA'
p2273
tp2274
(lp2275
S'LGA'
p2276
as(S'RSW'
p2277
S'ORD'
p2278
tp2279
(lp2280
S'MKE'
p2281
aS'GRR'
p2282
aS'MCI'
p2283
aS'STL'
p2284
aS'SYR'
p2285
aS'DSM'
p2286
aS'IND'
p2287
as(S'CLT'
p2288
S'ORD'
p2289
tp2290
(lp2291
S'LIT'
p2292
aS'OMA'
p2293
aS'FSD'
p2294
aS'MCI'
p2295
aS'STL'
p2296
aS'COS'
p2297
aS'FWA'
p2298
aS'MKE'
p2299
aS'XNA'
p2300
aS'DSM'
p2301
aS'PHX'
p2302
aS'LAX'
p2303
aS'LNK'
p2304
aS'IND'
p2305
aS'ICT'
p2306
aS'LAS'
p2307
as(S'ORD'
p2308
S'SLC'
p2309
tp2310
(lp2311
S'GEG'
p2312
aS'RNO'
p2313
aS'SAN'
p2314
aS'PDX'
p2315
aS'LGB'
p2316
aS'OAK'
p2317
aS'EUG'
p2318
aS'SGU'
p2319
aS'FAT'
p2320
aS'SFO'
p2321
aS'PHX'
p2322
aS'LAX'
p2323
aS'SEA'
p2324
aS'SJC'
p2325
aS'ONT'
p2326
aS'LAS'
p2327
as(S'ORD'
p2328
S'IAH'
p2329
tp2330
(lp2331
S'CLL'
p2332
aS'SAN'
p2333
aS'MSY'
p2334
aS'BTR'
p2335
aS'TUS'
p2336
aS'BFL'
p2337
aS'AUS'
p2338
aS'PHX'
p2339
aS'ONT'
p2340
aS'LAS'
p2341
aS'LCH'
p2342
aS'SAT'
p2343
as(S'DTW'
p2344
S'MCO'
p2345
tp2346
(lp2347
S'IAH'
p2348
aS'TPA'
p2349
aS'MIA'
p2350
aS'DFW'
p2351
aS'FLL'
p2352
aS'RSW'
p2353
as(S'PHL'
p2354
S'CVG'
p2355
tp2356
(lp2357
S'MCO'
p2358
aS'MKE'
p2359
aS'MCI'
p2360
aS'TPA'
p2361
aS'STL'
p2362
aS'DFW'
p2363
aS'MSN'
p2364
aS'LAX'
p2365
aS'MSY'
p2366
aS'CLT'
p2367
aS'ORD'
p2368
aS'BNA'
p2369
aS'LAS'
p2370
as(S'IAD'
p2371
S'ORD'
p2372
tp2373
(lp2374
S'MKE'
p2375
aS'MCI'
p2376
aS'ATW'
p2377
aS'OMA'
p2378
aS'LIT'
p2379
aS'MSN'
p2380
aS'ICT'
p2381
as(S'JFK'
p2382
S'TPA'
p2383
tp2384
(lp2385
S'FLL'
p2386
as(S'DFW'
p2387
S'SEA'
p2388
tp2389
(lp2390
S'YKM'
p2391
as(S'ATL'
p2392
S'DFW'
p2393
tp2394
(lp2395
S'COS'
p2396
aS'DEN'
p2397
aS'SLC'
p2398
aS'SPS'
p2399
aS'MSP'
p2400
aS'IAH'
p2401
aS'ABQ'
p2402
aS'AUS'
p2403
aS'PHX'
p2404
aS'LAX'
p2405
aS'DRO'
p2406
aS'SAT'
p2407
aS'LAS'
p2408
aS'TYR'
p2409
aS'ICT'
p2410
as(S'MCO'
p2411
S'CVG'
p2412
tp2413
(lp2414
S'MKE'
p2415
aS'GRR'
p2416
aS'MCI'
p2417
aS'PHL'
p2418
aS'STL'
p2419
aS'BDL'
p2420
aS'DFW'
p2421
aS'BOS'
p2422
aS'DCA'
p2423
aS'MSN'
p2424
aS'BNA'
p2425
aS'EWR'
p2426
aS'BWI'
p2427
aS'ORD'
p2428
aS'MSP'
p2429
aS'PIT'
p2430
aS'RIC'
p2431
as(S'CVG'
p2432
S'CLT'
p2433
tp2434
(lp2435
S'MCO'
p2436
aS'JAX'
p2437
aS'TPA'
p2438
aS'DAB'
p2439
aS'BWI'
p2440
aS'RIC'
p2441
as(S'MEM'
p2442
S'RDU'
p2443
tp2444
(lp2445
S'BWI'
p2446
as(S'BWI'
p2447
S'EWR'
p2448
tp2449
(lp2450
S'MIA'
p2451
aS'BOS'
p2452
aS'LAS'
p2453
as(S'MEM'
p2454
S'LAX'
p2455
tp2456
(lp2457
S'SFO'
p2458
as(S'LGB'
p2459
S'IAD'
p2460
tp2461
(lp2462
S'JFK'
p2463
as(S'MCI'
p2464
S'BWI'
p2465
tp2466
(lp2467
S'PWM'
p2468
aS'PIT'
p2469
as(S'LAX'
p2470
S'STL'
p2471
tp2472
(lp2473
S'RDU'
p2474
aS'PHL'
p2475
aS'LGA'
p2476
aS'DCA'
p2477
aS'ORD'
p2478
aS'DTW'
p2479
as(S'ORD'
p2480
S'TPA'
p2481
tp2482
(lp2483
S'SRQ'
p2484
aS'FLL'
p2485
aS'RSW'
p2486
as(S'MSP'
p2487
S'ORD'
p2488
tp2489
(lp2490
S'LAN'
p2491
aS'MDW'
p2492
as(S'SEA'
p2493
S'BUR'
p2494
tp2495
(lp2496
S'SAN'
p2497
aS'SNA'
p2498
as(S'ORD'
p2499
S'DCA'
p2500
tp2501
(lp2502
S'JFK'
p2503
aS'BWI'
p2504
aS'LGA'
p2505
aS'ORF'
p2506
aS'PHL'
p2507
as(S'PHX'
p2508
S'AUS'
p2509
tp2510
(lp2511
S'TPA'
p2512
as(S'TPA'
p2513
S'AUS'
p2514
tp2515
(lp2516
S'DAL'
p2517
as(S'SLC'
p2518
S'PHL'
p2519
tp2520
(lp2521
S'BOS'
p2522
as(S'OGG'
p2523
S'DFW'
p2524
tp2525
(lp2526
S'LGA'
p2527
aS'PHL'
p2528
as(S'ORD'
p2529
S'DEN'
p2530
tp2531
(lp2532
S'LAS'
p2533
as(S'DCA'
p2534
S'JFK'
p2535
tp2536
(lp2537
S'LGA'
p2538
as(S'BNA'
p2539
S'DTW'
p2540
tp2541
(lp2542
S'CMH'
p2543
aS'CLE'
p2544
aS'PHL'
p2545
aS'CAK'
p2546
aS'ORF'
p2547
aS'BWI'
p2548
aS'ORD'
p2549
as(S'ATL'
p2550
S'IAH'
p2551
tp2552
(lp2553
S'DAL'
p2554
aS'DFW'
p2555
aS'LAS'
p2556
aS'PHX'
p2557
aS'SLC'
p2558
aS'HOU'
p2559
aS'SAT'
p2560
as(S'MCO'
p2561
S'MSY'
p2562
tp2563
(lp2564
S'DAL'
p2565
aS'LAX'
p2566
as(S'SFO'
p2567
S'CLT'
p2568
tp2569
(lp2570
S'JFK'
p2571
aS'TRI'
p2572
aS'SJU'
p2573
aS'LGA'
p2574
aS'GNV'
p2575
aS'CRW'
p2576
aS'MSY'
p2577
aS'CMH'
p2578
aS'MIA'
p2579
aS'ATL'
p2580
aS'BOS'
p2581
aS'OAJ'
p2582
aS'CAK'
p2583
aS'GSP'
p2584
aS'FLL'
p2585
aS'FLO'
p2586
aS'PIT'
p2587
aS'CVG'
p2588
aS'DTW'
p2589
aS'CAE'
p2590
aS'FAY'
p2591
aS'JAX'
p2592
aS'AGS'
p2593
aS'SAV'
p2594
aS'MYR'
p2595
aS'DCA'
p2596
aS'PGV'
p2597
aS'GSO'
p2598
aS'IAD'
p2599
aS'CLE'
p2600
aS'BWI'
p2601
aS'RSW'
p2602
aS'BUF'
p2603
aS'RIC'
p2604
aS'MDT'
p2605
aS'PVD'
p2606
aS'RDU'
p2607
aS'CHA'
p2608
aS'ILM'
p2609
aS'EWN'
p2610
aS'TPA'
p2611
aS'BDL'
p2612
aS'CHO'
p2613
aS'SRQ'
p2614
aS'EWR'
p2615
aS'BNA'
p2616
aS'TLH'
p2617
aS'PBI'
p2618
aS'MCO'
p2619
aS'HHH'
p2620
aS'PHL'
p2621
aS'MEM'
p2622
aS'LYH'
p2623
aS'SBY'
p2624
aS'ALB'
p2625
aS'PHF'
p2626
aS'DAY'
p2627
aS'AVL'
p2628
aS'SYR'
p2629
aS'CHS'
p2630
aS'HTS'
p2631
aS'ROA'
p2632
aS'ORF'
p2633
aS'ROC'
p2634
aS'PWM'
p2635
aS'TYS'
p2636
as(S'STL'
p2637
S'DAL'
p2638
tp2639
(lp2640
S'LIT'
p2641
as(S'LAX'
p2642
S'CLE'
p2643
tp2644
(lp2645
S'RDU'
p2646
aS'MKE'
p2647
aS'FNT'
p2648
aS'GRR'
p2649
aS'ROC'
p2650
aS'CMH'
p2651
aS'ERI'
p2652
aS'BDL'
p2653
aS'LGA'
p2654
aS'ALB'
p2655
aS'RIC'
p2656
aS'BOS'
p2657
aS'SYR'
p2658
aS'PVD'
p2659
aS'CLT'
p2660
aS'BWI'
p2661
aS'MHT'
p2662
aS'PHL'
p2663
aS'BUF'
p2664
aS'DAY'
p2665
aS'MDT'
p2666
as(S'RDU'
p2667
S'LAS'
p2668
tp2669
(lp2670
S'BUR'
p2671
aS'SFO'
p2672
aS'LAX'
p2673
aS'SLC'
p2674
as(S'STL'
p2675
S'DTW'
p2676
tp2677
(lp2678
S'MKE'
p2679
aS'PHL'
p2680
aS'CMH'
p2681
aS'CAK'
p2682
aS'BWI'
p2683
aS'PIT'
p2684
as(S'IAD'
p2685
S'SAN'
p2686
tp2687
(lp2688
S'SFO'
p2689
aS'LAX'
p2690
as(S'PDX'
p2691
S'IAD'
p2692
tp2693
(lp2694
S'RDU'
p2695
aS'MCO'
p2696
aS'BOS'
p2697
aS'FLL'
p2698
as(S'ATL'
p2699
S'SAT'
p2700
tp2701
(lp2702
S'DAL'
p2703
as(S'CLT'
p2704
S'MEM'
p2705
tp2706
(lp2707
S'MKE'
p2708
aS'MSY'
p2709
aS'MCI'
p2710
aS'STL'
p2711
aS'DFW'
p2712
aS'OMA'
p2713
aS'XNA'
p2714
aS'AUS'
p2715
aS'PHX'
p2716
aS'LAX'
p2717
aS'DEN'
p2718
aS'IND'
p2719
aS'BNA'
p2720
aS'SAT'
p2721
aS'LAS'
p2722
as(S'OGG'
p2723
S'LAX'
p2724
tp2725
(lp2726
S'SBP'
p2727
aS'SAN'
p2728
aS'PDX'
p2729
aS'CLD'
p2730
aS'FAT'
p2731
aS'SFO'
p2732
aS'PHX'
p2733
aS'SEA'
p2734
aS'SJC'
p2735
aS'SMF'
p2736
aS'LAS'
p2737
as(S'AUS'
p2738
S'EWR'
p2739
tp2740
(lp2741
S'BDL'
p2742
aS'BOS'
p2743
aS'SYR'
p2744
aS'PVD'
p2745
aS'MHT'
p2746
aS'PWM'
p2747
aS'BUF'
p2748
as(S'BWI'
p2749
S'SLC'
p2750
tp2751
(lp2752
S'SAN'
p2753
aS'PDX'
p2754
aS'LGB'
p2755
aS'SNA'
p2756
aS'SFO'
p2757
aS'PHX'
p2758
aS'SEA'
p2759
aS'SJC'
p2760
aS'ONT'
p2761
aS'LAS'
p2762
as(S'DCA'
p2763
S'SLC'
p2764
tp2765
(lp2766
S'LAX'
p2767
aS'RNO'
p2768
aS'SAN'
p2769
aS'SNA'
p2770
aS'BUR'
p2771
aS'EUG'
p2772
aS'PDX'
p2773
aS'OAK'
p2774
aS'BOI'
p2775
aS'GEG'
p2776
aS'LGB'
p2777
aS'SEA'
p2778
aS'SFO'
p2779
aS'SJC'
p2780
aS'SMF'
p2781
aS'ONT'
p2782
aS'LAS'
p2783
as(S'ORD'
p2784
S'CLE'
p2785
tp2786
(lp2787
S'MHT'
p2788
aS'LGA'
p2789
aS'BUF'
p2790
aS'PVD'
p2791
as(S'LAX'
p2792
S'MCI'
p2793
tp2794
(lp2795
S'DAL'
p2796
aS'MCO'
p2797
aS'MDW'
p2798
aS'TPA'
p2799
aS'MSP'
p2800
as(S'SLC'
p2801
S'JFK'
p2802
tp2803
(lp2804
S'MCO'
p2805
aS'BTV'
p2806
aS'ROC'
p2807
aS'IAD'
p2808
aS'BOS'
p2809
aS'SYR'
p2810
aS'PWM'
p2811
aS'BUF'
p2812
aS'PIT'
p2813
as(S'CLT'
p2814
S'ATL'
p2815
tp2816
(lp2817
S'CHA'
p2818
aS'LGA'
p2819
aS'BHM'
p2820
aS'BOS'
p2821
aS'HSV'
p2822
aS'PVD'
p2823
aS'BWI'
p2824
aS'BUF'
p2825
aS'TYS'
p2826
as(S'ATL'
p2827
S'BDL'
p2828
tp2829
(lp2830
S'BOS'
p2831
as(S'SFO'
p2832
S'MSP'
p2833
tp2834
(lp2835
S'JFK'
p2836
aS'MKE'
p2837
aS'FNT'
p2838
aS'FSD'
p2839
aS'CMH'
p2840
aS'MIA'
p2841
aS'BOS'
p2842
aS'MSN'
p2843
aS'CVG'
p2844
aS'DTW'
p2845
aS'TPA'
p2846
aS'DAY'
p2847
aS'BMI'
p2848
aS'DCA'
p2849
aS'CLE'
p2850
aS'BUF'
p2851
aS'MDW'
p2852
aS'RDU'
p2853
aS'GRR'
p2854
aS'JAX'
p2855
aS'STL'
p2856
aS'IAD'
p2857
aS'DFW'
p2858
aS'LAN'
p2859
aS'DSM'
p2860
aS'CID'
p2861
aS'CLT'
p2862
aS'EWR'
p2863
aS'BNA'
p2864
aS'ICT'
p2865
aS'MCO'
p2866
aS'OMA'
p2867
aS'MCI'
p2868
aS'PHL'
p2869
aS'MEM'
p2870
aS'LGA'
p2871
aS'MOT'
p2872
aS'SDF'
p2873
aS'IND'
p2874
aS'GRB'
p2875
aS'ORD'
p2876
aS'RSW'
p2877
as(S'SFO'
p2878
S'BUR'
p2879
tp2880
(lp2881
S'LAX'
p2882
as(S'CLT'
p2883
S'STL'
p2884
tp2885
(lp2886
S'ORD'
p2887
as(S'SAN'
p2888
S'IAH'
p2889
tp2890
(lp2891
S'MKE'
p2892
aS'CMH'
p2893
aS'MIA'
p2894
aS'ATL'
p2895
aS'BOS'
p2896
aS'LIT'
p2897
aS'FLL'
p2898
aS'CVG'
p2899
aS'DAL'
p2900
aS'BWI'
p2901
aS'PIT'
p2902
aS'RIC'
p2903
aS'SAT'
p2904
aS'SHV'
p2905
aS'STL'
p2906
aS'DFW'
p2907
aS'AUS'
p2908
aS'DSM'
p2909
aS'CLT'
p2910
aS'BNA'
p2911
aS'PBI'
p2912
aS'GRK'
p2913
aS'MCO'
p2914
aS'OMA'
p2915
aS'MCI'
p2916
aS'PHL'
p2917
aS'LGA'
p2918
aS'OKC'
p2919
aS'IND'
p2920
aS'ORD'
p2921
aS'TYS'
p2922
as(S'AUS'
p2923
S'BWI'
p2924
tp2925
(lp2926
S'BOS'
p2927
aS'BDL'
p2928
aS'ISP'
p2929
aS'PVD'
p2930
aS'PWM'
p2931
aS'DTW'
p2932
as(S'MDW'
p2933
S'PHX'
p2934
tp2935
(lp2936
S'RNO'
p2937
aS'SAN'
p2938
aS'BUR'
p2939
aS'LAX'
p2940
aS'ONT'
p2941
aS'LAS'
p2942
as(S'SAT'
p2943
S'PHX'
p2944
tp2945
(lp2946
S'LGB'
p2947
aS'GEG'
p2948
aS'SAN'
p2949
aS'SEA'
p2950
aS'LAS'
p2951
as(S'HOU'
p2952
S'ELP'
p2953
tp2954
(lp2955
S'LAX'
p2956
aS'SAN'
p2957
as(S'DFW'
p2958
S'TPA'
p2959
tp2960
(lp2961
S'MIA'
p2962
aS'MCO'
p2963
as(S'SJC'
p2964
S'ORD'
p2965
tp2966
(lp2967
S'DCA'
p2968
aS'BOS'
p2969
aS'BUF'
p2970
aS'LGA'
p2971
as(S'MSP'
p2972
S'MIA'
p2973
tp2974
(lp2975
S'SJU'
p2976
as(S'PHL'
p2977
S'ATL'
p2978
tp2979
(lp2980
S'GSP'
p2981
aS'COS'
p2982
aS'MSY'
p2983
aS'MIA'
p2984
aS'ILM'
p2985
aS'MKE'
p2986
aS'FLL'
p2987
aS'CAE'
p2988
aS'FAY'
p2989
aS'JAX'
p2990
aS'DAB'
p2991
aS'MYR'
p2992
aS'GSO'
p2993
aS'DAY'
p2994
aS'SAT'
p2995
aS'MLB'
p2996
aS'TPA'
p2997
aS'STL'
p2998
aS'AUS'
p2999
aS'CHS'
p3000
aS'LAS'
p3001
aS'CLT'
p3002
aS'BNA'
p3003
aS'PBI'
p3004
aS'GRK'
p3005
aS'MCO'
p3006
aS'BHM'
p3007
aS'MCI'
p3008
aS'BTR'
p3009
aS'MEM'
p3010
aS'SAV'
p3011
aS'AVL'
p3012
aS'SDF'
p3013
aS'IND'
p3014
aS'RSW'
p3015
aS'TYS'
p3016
as(S'ORD'
p3017
S'DFW'
p3018
tp3019
(lp3020
S'MCO'
p3021
aS'TUS'
p3022
aS'RNO'
p3023
aS'SAN'
p3024
aS'MSY'
p3025
aS'AZA'
p3026
aS'SPS'
p3027
aS'FAT'
p3028
aS'GGG'
p3029
aS'BPT'
p3030
aS'LCH'
p3031
aS'DEN'
p3032
aS'ACT'
p3033
aS'GPT'
p3034
aS'TYR'
p3035
aS'LAS'
p3036
as(S'MCO'
p3037
S'IAD'
p3038
tp3039
(lp3040
S'BOS'
p3041
aS'BTV'
p3042
aS'CRW'
p3043
aS'PIT'
p3044
aS'CMH'
p3045
aS'BDL'
p3046
aS'LGA'
p3047
aS'ALB'
p3048
aS'BGM'
p3049
aS'SYR'
p3050
aS'GSO'
p3051
aS'SEA'
p3052
aS'IND'
p3053
aS'ROC'
p3054
aS'PWM'
p3055
aS'PVD'
p3056
aS'DAY'
p3057
aS'MDT'
p3058
aS'ABE'
p3059
as(S'SAN'
p3060
S'ATL'
p3061
tp3062
(lp3063
S'JFK'
p3064
aS'GSP'
p3065
aS'MKE'
p3066
aS'CMH'
p3067
aS'MIA'
p3068
aS'BOS'
p3069
aS'CAK'
p3070
aS'FLL'
p3071
aS'CVG'
p3072
aS'AGS'
p3073
aS'GSO'
p3074
aS'FAY'
p3075
aS'DAB'
p3076
aS'SAV'
p3077
aS'ROC'
p3078
aS'DCA'
p3079
aS'CAE'
p3080
aS'BWI'
p3081
aS'PIT'
p3082
aS'DAY'
p3083
aS'PVD'
p3084
aS'RDU'
p3085
aS'TPA'
p3086
aS'STL'
p3087
aS'CLE'
p3088
aS'CHS'
p3089
aS'CLT'
p3090
aS'EWR'
p3091
aS'BNA'
p3092
aS'PBI'
p3093
aS'MCO'
p3094
aS'LIT'
p3095
aS'VPS'
p3096
aS'PHL'
p3097
aS'BUF'
p3098
aS'PNS'
p3099
aS'LGA'
p3100
aS'PHF'
p3101
aS'RIC'
p3102
aS'AVL'
p3103
aS'SDF'
p3104
aS'IND'
p3105
aS'TRI'
p3106
aS'TYS'
p3107
as(S'EWR'
p3108
S'STL'
p3109
tp3110
(lp3111
S'MCO'
p3112
aS'BHM'
p3113
aS'TPA'
p3114
aS'DAL'
p3115
aS'ATL'
p3116
aS'LAX'
p3117
aS'SAT'
p3118
as(S'FLL'
p3119
S'AUS'
p3120
tp3121
(lp3122
S'LAX'
p3123
as(S'CLE'
p3124
S'EWR'
p3125
tp3126
(lp3127
S'MCO'
p3128
aS'BOS'
p3129
aS'TPA'
p3130
aS'BDL'
p3131
aS'LGA'
p3132
aS'SJU'
p3133
aS'FLL'
p3134
aS'SEA'
p3135
aS'ORF'
p3136
aS'RSW'
p3137
aS'PBI'
p3138
aS'PWM'
p3139
as(S'CLT'
p3140
S'SLC'
p3141
tp3142
(lp3143
S'RNO'
p3144
aS'SAN'
p3145
aS'PDX'
p3146
aS'OAK'
p3147
aS'SFO'
p3148
aS'PHX'
p3149
aS'LAX'
p3150
aS'SEA'
p3151
aS'SMF'
p3152
aS'JAC'
p3153
aS'ONT'
p3154
aS'LAS'
p3155
as(S'SLC'
p3156
S'DTW'
p3157
tp3158
(lp3159
S'GSP'
p3160
aS'MKE'
p3161
aS'BGM'
p3162
aS'CAK'
p3163
aS'MSN'
p3164
aS'FLL'
p3165
aS'GSO'
p3166
aS'ROC'
p3167
aS'DCA'
p3168
aS'IAD'
p3169
aS'BWI'
p3170
aS'DAY'
p3171
aS'MBS'
p3172
aS'RDU'
p3173
aS'TPA'
p3174
aS'CLE'
p3175
aS'IND'
p3176
aS'CLT'
p3177
aS'EWR'
p3178
aS'MHT'
p3179
aS'MCO'
p3180
aS'LGA'
p3181
aS'RIC'
p3182
aS'SYR'
p3183
aS'SDF'
p3184
aS'ORF'
p3185
aS'TYS'
p3186
as(S'LAX'
p3187
S'PSP'
p3188
tp3189
(lp3190
S'ORD'
p3191
as(S'IAH'
p3192
S'LGA'
p3193
tp3194
(lp3195
S'SYR'
p3196
aS'BGR'
p3197
aS'BOS'
p3198
aS'EWR'
p3199
as(S'RNO'
p3200
S'SFO'
p3201
tp3202
(lp3203
S'SBP'
p3204
aS'SAN'
p3205
aS'SNA'
p3206
aS'BUR'
p3207
aS'EUG'
p3208
aS'PDX'
p3209
aS'BOI'
p3210
aS'LAX'
p3211
aS'SEA'
p3212
aS'PSP'
p3213
aS'ONT'
p3214
aS'LAS'
p3215
as(S'ORD'
p3216
S'IND'
p3217
tp3218
(lp3219
S'PHL'
p3220
as(S'JAX'
p3221
S'EWR'
p3222
tp3223
(lp3224
S'BOS'
p3225
aS'PWM'
p3226
as(S'DFW'
p3227
S'ORD'
p3228
tp3229
(lp3230
S'MCO'
p3231
aS'MKE'
p3232
aS'ROC'
p3233
aS'FSD'
p3234
aS'STL'
p3235
aS'DAY'
p3236
aS'BOS'
p3237
aS'ART'
p3238
aS'MLI'
p3239
aS'CHO'
p3240
aS'MSN'
p3241
aS'HPN'
p3242
aS'IND'
p3243
aS'BWI'
p3244
aS'MSP'
p3245
aS'SBN'
p3246
aS'RIC'
p3247
aS'MDT'
p3248
as(S'SFO'
p3249
S'ORD'
p3250
tp3251
(lp3252
S'JFK'
p3253
aS'MKG'
p3254
aS'MKE'
p3255
aS'FNT'
p3256
aS'CRW'
p3257
aS'CMH'
p3258
aS'MIA'
p3259
aS'MSP'
p3260
aS'LIT'
p3261
aS'MSN'
p3262
aS'FLL'
p3263
aS'CAE'
p3264
aS'TPA'
p3265
aS'BMI'
p3266
aS'GSO'
p3267
aS'BUF'
p3268
aS'DAY'
p3269
aS'GRR'
p3270
aS'JAX'
p3271
aS'ORF'
p3272
aS'DSM'
p3273
aS'CID'
p3274
aS'HPN'
p3275
aS'CLT'
p3276
aS'PBI'
p3277
aS'IND'
p3278
aS'MCO'
p3279
aS'CAK'
p3280
aS'MEM'
p3281
aS'LGA'
p3282
aS'AVP'
p3283
aS'RIC'
p3284
aS'CHS'
p3285
aS'DBQ'
p3286
aS'RSW'
p3287
aS'SBN'
p3288
aS'TYS'
p3289
as(S'DEN'
p3290
S'DTW'
p3291
tp3292
(lp3293
S'RDU'
p3294
aS'ROC'
p3295
aS'LGA'
p3296
aS'GSO'
p3297
aS'IND'
p3298
aS'MHT'
p3299
aS'BUF'
p3300
aS'RIC'
p3301
aS'MDT'
p3302
as(S'DEN'
p3303
S'MCO'
p3304
tp3305
(lp3306
S'MIA'
p3307
aS'FLL'
p3308
as(S'FLL'
p3309
S'CLT'
p3310
tp3311
(lp3312
S'JFK'
p3313
aS'GSP'
p3314
aS'MKE'
p3315
aS'ROC'
p3316
aS'FLO'
p3317
aS'MSY'
p3318
aS'CMH'
p3319
aS'AVP'
p3320
aS'ATL'
p3321
aS'ILM'
p3322
aS'OAJ'
p3323
aS'MSP'
p3324
aS'CAK'
p3325
aS'EWN'
p3326
aS'HTS'
p3327
aS'DEN'
p3328
aS'CVG'
p3329
aS'AGS'
p3330
aS'GSO'
p3331
aS'CRW'
p3332
aS'FAY'
p3333
aS'SYR'
p3334
aS'DTW'
p3335
aS'MYR'
p3336
aS'DCA'
p3337
aS'PGV'
p3338
aS'BUF'
p3339
aS'HSV'
p3340
aS'PVD'
p3341
aS'IAD'
p3342
aS'CLE'
p3343
aS'BWI'
p3344
aS'LYH'
p3345
aS'DAY'
p3346
aS'MDT'
p3347
aS'RDU'
p3348
aS'CHA'
p3349
aS'BOS'
p3350
aS'IAH'
p3351
aS'PDX'
p3352
aS'STL'
p3353
aS'BDL'
p3354
aS'CHO'
p3355
aS'ORF'
p3356
aS'AUS'
p3357
aS'CHS'
p3358
aS'HPN'
p3359
aS'LGA'
p3360
aS'GPT'
p3361
aS'EWR'
p3362
aS'BNA'
p3363
aS'IND'
p3364
aS'PWM'
p3365
aS'BHM'
p3366
aS'MCI'
p3367
aS'PHL'
p3368
aS'MEM'
p3369
aS'PIT'
p3370
aS'ABE'
p3371
aS'SBY'
p3372
aS'ALB'
p3373
aS'PHF'
p3374
aS'RIC'
p3375
aS'AVL'
p3376
aS'SFO'
p3377
aS'LAX'
p3378
aS'LEX'
p3379
aS'ORD'
p3380
aS'TYS'
p3381
aS'TRI'
p3382
aS'LAS'
p3383
as(S'BOS'
p3384
S'PHL'
p3385
tp3386
(lp3387
S'MSY'
p3388
aS'ATL'
p3389
aS'ILM'
p3390
aS'CAK'
p3391
aS'FLL'
p3392
aS'ERI'
p3393
aS'TPA'
p3394
aS'MYR'
p3395
aS'BWI'
p3396
aS'PIT'
p3397
aS'SAV'
p3398
aS'RDU'
p3399
aS'JAX'
p3400
aS'SJU'
p3401
aS'CHS'
p3402
aS'CLT'
p3403
aS'PBI'
p3404
aS'MCO'
p3405
aS'BUF'
p3406
aS'SBY'
p3407
aS'PHF'
p3408
aS'RIC'
p3409
aS'ORF'
p3410
aS'ORD'
p3411
aS'RSW'
p3412
as(S'LGA'
p3413
S'DFW'
p3414
tp3415
(lp3416
S'COS'
p3417
aS'TUS'
p3418
aS'MSY'
p3419
aS'AEX'
p3420
aS'GJT'
p3421
aS'SLC'
p3422
aS'FSM'
p3423
aS'LIT'
p3424
aS'DEN'
p3425
aS'ACT'
p3426
aS'SMF'
p3427
aS'TXK'
p3428
aS'MFE'
p3429
aS'AMA'
p3430
aS'SPS'
p3431
aS'SAF'
p3432
aS'FAT'
p3433
aS'GRK'
p3434
aS'SEA'
p3435
aS'TUL'
p3436
aS'ICT'
p3437
aS'ONT'
p3438
aS'SAT'
p3439
aS'CLL'
p3440
aS'IAH'
p3441
aS'SHV'
p3442
aS'PDX'
p3443
aS'ABI'
p3444
aS'SJT'
p3445
aS'JAN'
p3446
aS'ABQ'
p3447
aS'AUS'
p3448
aS'HOU'
p3449
aS'SGF'
p3450
aS'SJC'
p3451
aS'ELP'
p3452
aS'JAC'
p3453
aS'SAN'
p3454
aS'XNA'
p3455
aS'RNO'
p3456
aS'LRD'
p3457
aS'BTR'
p3458
aS'SNA'
p3459
aS'SFO'
p3460
aS'OKC'
p3461
aS'PHX'
p3462
aS'LAX'
p3463
aS'PSP'
p3464
aS'LAW'
p3465
aS'TYR'
p3466
aS'LAS'
p3467
as(S'TPA'
p3468
S'MDW'
p3469
tp3470
(lp3471
S'IAD'
p3472
aS'BKG'
p3473
aS'DTW'
p3474
aS'DSM'
p3475
aS'EWR'
p3476
as(S'IAH'
p3477
S'OKC'
p3478
tp3479
(lp3480
S'DEN'
p3481
as(S'CLE'
p3482
S'MIA'
p3483
tp3484
(lp3485
S'SJU'
p3486
as(S'CLE'
p3487
S'DEN'
p3488
tp3489
(lp3490
S'PHX'
p3491
aS'LAX'
p3492
aS'LAS'
p3493
as(S'MIA'
p3494
S'CLE'
p3495
tp3496
(lp3497
S'ORD'
p3498
as(S'OAK'
p3499
S'SLC'
p3500
tp3501
(lp3502
S'BIL'
p3503
aS'DEN'
p3504
aS'ABQ'
p3505
aS'MSO'
p3506
aS'BOI'
p3507
aS'AUS'
p3508
aS'PHX'
p3509
aS'GEG'
p3510
aS'SEA'
p3511
as(S'IAD'
p3512
S'LGA'
p3513
tp3514
(lp3515
S'BGR'
p3516
as(S'LAX'
p3517
S'MSY'
p3518
tp3519
(lp3520
S'MCO'
p3521
aS'FLL'
p3522
aS'TPA'
p3523
as(S'LAS'
p3524
S'MKE'
p3525
tp3526
(lp3527
S'BOS'
p3528
aS'LGA'
p3529
as(S'SNA'
p3530
S'SEA'
p3531
tp3532
(lp3533
S'BIL'
p3534
aS'GTF'
p3535
aS'PSC'
p3536
aS'EUG'
p3537
aS'YKM'
p3538
aS'MSO'
p3539
aS'BLI'
p3540
aS'RDM'
p3541
aS'ALW'
p3542
as(S'LAS'
p3543
S'RDU'
p3544
tp3545
(lp3546
S'BWI'
p3547
as(S'ATL'
p3548
S'DTW'
p3549
tp3550
(lp3551
S'FNT'
p3552
aS'ELM'
p3553
aS'BGM'
p3554
aS'SWF'
p3555
as(S'SLC'
p3556
S'DFW'
p3557
tp3558
(lp3559
S'RDU'
p3560
aS'TPA'
p3561
aS'STL'
p3562
aS'BDL'
p3563
aS'ATL'
p3564
aS'MLU'
p3565
aS'RIC'
p3566
aS'LIT'
p3567
aS'SDF'
p3568
aS'HOU'
p3569
aS'CLE'
p3570
aS'IND'
p3571
aS'BWI'
p3572
aS'BNA'
p3573
aS'ICT'
p3574
aS'DTW'
p3575
aS'DAY'
p3576
aS'SAT'
p3577
as(S'BOS'
p3578
S'LGA'
p3579
tp3580
(lp3581
S'JFK'
p3582
aS'IAH'
p3583
aS'MIA'
p3584
aS'DCA'
p3585
aS'CLT'
p3586
aS'ORD'
p3587
aS'PIT'
p3588
as(S'EWR'
p3589
S'DFW'
p3590
tp3591
(lp3592
S'COS'
p3593
aS'MSY'
p3594
aS'LIT'
p3595
aS'DEN'
p3596
aS'ACT'
p3597
aS'SMF'
p3598
aS'MFE'
p3599
aS'SAF'
p3600
aS'FAT'
p3601
aS'LBB'
p3602
aS'LAX'
p3603
aS'SLC'
p3604
aS'ONT'
p3605
aS'SAT'
p3606
aS'IAH'
p3607
aS'SHV'
p3608
aS'ABQ'
p3609
aS'AUS'
p3610
aS'SJC'
p3611
aS'ELP'
p3612
aS'ICT'
p3613
aS'RNO'
p3614
aS'SNA'
p3615
aS'TUS'
p3616
aS'SAN'
p3617
aS'SFO'
p3618
aS'OKC'
p3619
aS'PHX'
p3620
aS'TUL'
p3621
aS'MAF'
p3622
aS'PSP'
p3623
aS'LAW'
p3624
aS'LAS'
p3625
as(S'SEA'
p3626
S'LAX'
p3627
tp3628
(lp3629
S'SAN'
p3630
aS'SNA'
p3631
aS'LGB'
p3632
aS'MMH'
p3633
aS'ONT'
p3634
aS'LAS'
p3635
as(S'PHL'
p3636
S'FLL'
p3637
tp3638
(lp3639
S'MIA'
p3640
aS'JAX'
p3641
as(S'LAX'
p3642
S'SMF'
p3643
tp3644
(lp3645
S'PDX'
p3646
as(S'ATL'
p3647
S'CLT'
p3648
tp3649
(lp3650
S'SDF'
p3651
as(S'SLC'
p3652
S'PHX'
p3653
tp3654
(lp3655
S'LGB'
p3656
aS'ABQ'
p3657
aS'SNA'
p3658
aS'LAX'
p3659
aS'LAS'
p3660
as(S'OGG'
p3661
S'SEA'
p3662
tp3663
(lp3664
S'BLI'
p3665
aS'PDX'
p3666
as(S'DTW'
p3667
S'IAD'
p3668
tp3669
(lp3670
S'RDU'
p3671
aS'MCO'
p3672
aS'LGA'
p3673
aS'ATL'
p3674
aS'BOS'
p3675
aS'DCA'
p3676
as(S'LAX'
p3677
S'PHL'
p3678
tp3679
(lp3680
S'JFK'
p3681
aS'BOS'
p3682
aS'SWF'
p3683
aS'HVN'
p3684
aS'BUF'
p3685
aS'BDL'
p3686
aS'LGA'
p3687
aS'CMH'
p3688
aS'DCA'
p3689
aS'HPN'
p3690
aS'CLE'
p3691
aS'ORF'
p3692
aS'BWI'
p3693
aS'SBY'
p3694
aS'DTW'
p3695
aS'RIC'
p3696
aS'PIT'
p3697
as(S'SEA'
p3698
S'SAN'
p3699
tp3700
(lp3701
S'TUS'
p3702
aS'PHX'
p3703
as(S'IAH'
p3704
S'CVG'
p3705
tp3706
(lp3707
S'MSN'
p3708
aS'ORD'
p3709
aS'EWR'
p3710
as(S'DTW'
p3711
S'LAX'
p3712
tp3713
(lp3714
S'SFO'
p3715
aS'OAK'
p3716
aS'SJC'
p3717
as(S'AUS'
p3718
S'PHX'
p3719
tp3720
(lp3721
S'LGB'
p3722
aS'LAS'
p3723
as(S'SAT'
p3724
S'BWI'
p3725
tp3726
(lp3727
S'EWR'
p3728
aS'ISP'
p3729
aS'PIT'
p3730
as(S'DTW'
p3731
S'PHL'
p3732
tp3733
(lp3734
S'RDU'
p3735
aS'MCO'
p3736
aS'BOS'
p3737
aS'TPA'
p3738
aS'HVN'
p3739
aS'BDL'
p3740
aS'DFW'
p3741
aS'LGA'
p3742
aS'ALB'
p3743
aS'LAX'
p3744
aS'HPN'
p3745
aS'ORF'
p3746
aS'BWI'
p3747
aS'MHT'
p3748
aS'SBY'
p3749
aS'RSW'
p3750
aS'RIC'
p3751
aS'GSO'
p3752
aS'PVD'
p3753
as(S'BNA'
p3754
S'HOU'
p3755
tp3756
(lp3757
S'DAL'
p3758
as(S'IAH'
p3759
S'MEM'
p3760
tp3761
(lp3762
S'IND'
p3763
aS'MCO'
p3764
aS'ORD'
p3765
aS'LAX'
p3766
aS'DCA'
p3767
as(S'HOU'
p3768
S'STL'
p3769
tp3770
(lp3771
S'MKE'
p3772
aS'LGA'
p3773
aS'PHL'
p3774
aS'BOS'
p3775
aS'OMA'
p3776
aS'DCA'
p3777
aS'MDW'
p3778
as(S'DTW'
p3779
S'LGA'
p3780
tp3781
(lp3782
S'JFK'
p3783
aS'MYR'
p3784
aS'FLL'
p3785
as(S'EWR'
p3786
S'SLC'
p3787
tp3788
(lp3789
S'SFO'
p3790
aS'PDX'
p3791
aS'OAK'
p3792
aS'BOI'
p3793
aS'LAX'
p3794
aS'SJC'
p3795
aS'SMF'
p3796
as(S'LAX'
p3797
S'ASE'
p3798
tp3799
(lp3800
S'DEN'
p3801
as(S'TPA'
p3802
S'JFK'
p3803
tp3804
(lp3805
S'BOS'
p3806
aS'LGA'
p3807
aS'BUF'
p3808
aS'ROC'
p3809
as(S'CLE'
p3810
S'IAD'
p3811
tp3812
(lp3813
S'MCO'
p3814
aS'RDU'
p3815
aS'SEA'
p3816
aS'TPA'
p3817
aS'GSP'
p3818
aS'BOS'
p3819
aS'SJU'
p3820
aS'CHS'
p3821
aS'DEN'
p3822
aS'ORF'
p3823
as(S'PDX'
p3824
S'PHX'
p3825
tp3826
(lp3827
S'SAN'
p3828
aS'SNA'
p3829
aS'LIT'
p3830
aS'LAX'
p3831
aS'PSP'
p3832
aS'ONT'
p3833
aS'LAS'
p3834
as(S'MDW'
p3835
S'SNA'
p3836
tp3837
(lp3838
S'SFO'
p3839
as(S'DEN'
p3840
S'PHL'
p3841
tp3842
(lp3843
S'RDU'
p3844
aS'BOS'
p3845
aS'LGA'
p3846
aS'PHF'
p3847
aS'EWR'
p3848
aS'BWI'
p3849
aS'MDT'
p3850
as(S'PHX'
p3851
S'MCO'
p3852
tp3853
(lp3854
S'FLL'
p3855
as(S'DCA'
p3856
S'PHX'
p3857
tp3858
(lp3859
S'TUS'
p3860
aS'RNO'
p3861
aS'SAN'
p3862
aS'SLC'
p3863
aS'SNA'
p3864
aS'LGB'
p3865
aS'PDX'
p3866
aS'OAK'
p3867
aS'FAT'
p3868
aS'ABQ'
p3869
aS'LAX'
p3870
aS'SEA'
p3871
aS'SFO'
p3872
aS'SJC'
p3873
aS'SMF'
p3874
aS'BUR'
p3875
aS'ONT'
p3876
aS'LAS'
p3877
as(S'LAS'
p3878
S'JFK'
p3879
tp3880
(lp3881
S'MCO'
p3882
aS'ROC'
p3883
aS'PHL'
p3884
aS'IAD'
p3885
aS'BOS'
p3886
aS'SJU'
p3887
aS'SYR'
p3888
aS'BWI'
p3889
aS'PWM'
p3890
aS'BUF'
p3891
as(S'MSP'
p3892
S'DCA'
p3893
tp3894
(lp3895
S'MCO'
p3896
aS'RDU'
p3897
aS'ROC'
p3898
aS'TPA'
p3899
aS'BDL'
p3900
aS'BOS'
p3901
aS'ALB'
p3902
aS'LGA'
p3903
aS'SYR'
p3904
aS'BUF'
p3905
aS'PVD'
p3906
aS'CVG'
p3907
aS'ORF'
p3908
aS'BWI'
p3909
aS'MHT'
p3910
aS'PWM'
p3911
aS'PIT'
p3912
as(S'STL'
p3913
S'DCA'
p3914
tp3915
(lp3916
S'RDU'
p3917
as(S'BWI'
p3918
S'ABQ'
p3919
tp3920
(lp3921
S'PHX'
p3922
as(S'MEM'
p3923
S'CVG'
p3924
tp3925
(lp3926
S'BWI'
p3927
as(S'LAX'
p3928
S'ORD'
p3929
tp3930
(lp3931
S'LIT'
p3932
aS'MKE'
p3933
aS'CRW'
p3934
aS'JAX'
p3935
aS'ALO'
p3936
aS'CID'
p3937
aS'AVP'
p3938
aS'RIC'
p3939
aS'TYS'
p3940
aS'MSP'
p3941
aS'CAK'
p3942
aS'SPI'
p3943
aS'DSM'
p3944
aS'HPN'
p3945
aS'CLT'
p3946
aS'RSW'
p3947
aS'SBN'
p3948
aS'DAY'
p3949
aS'GSO'
p3950
aS'FLL'
p3951
as(S'IAD'
p3952
S'PHX'
p3953
tp3954
(lp3955
S'LAX'
p3956
as(S'FLL'
p3957
S'ORD'
p3958
tp3959
(lp3960
S'MKE'
p3961
aS'MCI'
p3962
aS'CMH'
p3963
aS'STL'
p3964
aS'MSP'
p3965
aS'DEN'
p3966
aS'IND'
p3967
aS'DAY'
p3968
as(S'ABQ'
p3969
S'MDW'
p3970
tp3971
(lp3972
S'DTW'
p3973
aS'PIT'
p3974
aS'IAD'
p3975
as(S'SFO'
p3976
S'MCO'
p3977
tp3978
(lp3979
S'FLL'
p3980
as(S'SFO'
p3981
S'PHL'
p3982
tp3983
(lp3984
S'JFK'
p3985
aS'LGA'
p3986
aS'HVN'
p3987
aS'PIT'
p3988
aS'BOS'
p3989
aS'PHF'
p3990
aS'DCA'
p3991
aS'HPN'
p3992
aS'CLE'
p3993
aS'ORF'
p3994
aS'BWI'
p3995
aS'SWF'
p3996
aS'BUF'
p3997
aS'RIC'
p3998
as(S'SAN'
p3999
S'LAX'
p4000
tp4001
(lp4002
S'COS'
p4003
aS'OAK'
p4004
aS'BOI'
p4005
aS'DEN'
p4006
aS'SMF'
p4007
aS'BNA'
p4008
aS'IAH'
p4009
aS'FAT'
p4010
aS'SEA'
p4011
aS'BWI'
p4012
aS'PIT'
p4013
aS'SAT'
p4014
aS'MRY'
p4015
aS'PDX'
p4016
aS'STL'
p4017
aS'DFW'
p4018
aS'ABQ'
p4019
aS'AUS'
p4020
aS'STS'
p4021
aS'SJC'
p4022
aS'ELP'
p4023
aS'SLC'
p4024
aS'MCO'
p4025
aS'SBP'
p4026
aS'RNO'
p4027
aS'MCI'
p4028
aS'TUS'
p4029
aS'SFO'
p4030
aS'OKC'
p4031
aS'PHX'
p4032
aS'IND'
p4033
aS'ORD'
p4034
aS'LAS'
p4035
as(S'BOS'
p4036
S'DEN'
p4037
tp4038
(lp4039
S'SAN'
p4040
aS'PDX'
p4041
aS'OAK'
p4042
aS'FAT'
p4043
aS'PHX'
p4044
aS'LAX'
p4045
aS'SJC'
p4046
aS'ONT'
p4047
aS'LAS'
p4048
as(S'EWR'
p4049
S'SNA'
p4050
tp4051
(lp4052
S'SFO'
p4053
aS'LAX'
p4054
as(S'SFO'
p4055
S'EWR'
p4056
tp4057
(lp4058
S'JFK'
p4059
aS'AVP'
p4060
aS'BTV'
p4061
aS'BOS'
p4062
aS'ROC'
p4063
aS'ITH'
p4064
aS'BDL'
p4065
aS'LGA'
p4066
aS'ALB'
p4067
aS'SJU'
p4068
aS'SYR'
p4069
aS'PVD'
p4070
aS'ORF'
p4071
aS'BWI'
p4072
aS'MHT'
p4073
aS'PWM'
p4074
aS'BUF'
p4075
aS'RIC'
p4076
as(S'BNA'
p4077
S'ATL'
p4078
tp4079
(lp4080
S'JFK'
p4081
aS'MLB'
p4082
aS'COS'
p4083
aS'LGA'
p4084
aS'GNV'
p4085
aS'MSY'
p4086
aS'GSP'
p4087
aS'MIA'
p4088
aS'AEX'
p4089
aS'ILM'
p4090
aS'TPA'
p4091
aS'RIC'
p4092
aS'CAK'
p4093
aS'CLT'
p4094
aS'FLL'
p4095
aS'DEN'
p4096
aS'CMH'
p4097
aS'SMF'
p4098
aS'SNA'
p4099
aS'AGS'
p4100
aS'CAE'
p4101
aS'IAH'
p4102
aS'IAD'
p4103
aS'SAN'
p4104
aS'DAB'
p4105
aS'LFT'
p4106
aS'ROA'
p4107
aS'SAV'
p4108
aS'ROC'
p4109
aS'MKE'
p4110
aS'DCA'
p4111
aS'DSM'
p4112
aS'CHS'
p4113
aS'PVD'
p4114
aS'SEA'
p4115
aS'ECP'
p4116
aS'BWI'
p4117
aS'PIT'
p4118
aS'DAY'
p4119
aS'SAT'
p4120
aS'RDU'
p4121
aS'BOS'
p4122
aS'EWN'
p4123
aS'JAX'
p4124
aS'BDL'
p4125
aS'DFW'
p4126
aS'MLI'
p4127
aS'FAY'
p4128
aS'OAJ'
p4129
aS'ABQ'
p4130
aS'AUS'
p4131
aS'SRQ'
p4132
aS'HPN'
p4133
aS'EYW'
p4134
aS'GPT'
p4135
aS'EWR'
p4136
aS'MHT'
p4137
aS'TLH'
p4138
aS'PBI'
p4139
aS'ORD'
p4140
aS'MCO'
p4141
aS'OMA'
p4142
aS'RSW'
p4143
aS'BHM'
p4144
aS'MCI'
p4145
aS'PHL'
p4146
aS'BUF'
p4147
aS'PNS'
p4148
aS'BTR'
p4149
aS'ALB'
p4150
aS'PHF'
p4151
aS'CLE'
p4152
aS'MDW'
p4153
aS'SJU'
p4154
aS'SYR'
p4155
aS'PHX'
p4156
aS'ORF'
p4157
aS'GSO'
p4158
aS'PWM'
p4159
aS'HOU'
p4160
aS'LAS'
p4161
as(S'SFO'
p4162
S'HNL'
p4163
tp4164
(lp4165
S'ITO'
p4166
as(S'IAD'
p4167
S'PDX'
p4168
tp4169
(lp4170
S'RDM'
p4171
as(S'LAX'
p4172
S'BNA'
p4173
tp4174
(lp4175
S'RDU'
p4176
aS'MCO'
p4177
aS'TPA'
p4178
aS'JAX'
p4179
aS'CMH'
p4180
aS'CLE'
p4181
aS'LGA'
p4182
aS'DCA'
p4183
aS'CHS'
p4184
aS'DTW'
p4185
as(S'BOS'
p4186
S'SFO'
p4187
tp4188
(lp4189
S'SBP'
p4190
aS'RNO'
p4191
aS'MRY'
p4192
aS'PDX'
p4193
aS'BUR'
p4194
aS'EUG'
p4195
aS'SNA'
p4196
aS'SAN'
p4197
aS'FAT'
p4198
aS'MFR'
p4199
aS'SBA'
p4200
aS'LAX'
p4201
aS'SEA'
p4202
aS'RDM'
p4203
aS'SMF'
p4204
aS'PSP'
p4205
aS'ONT'
p4206
aS'LAS'
p4207
as(S'LAS'
p4208
S'STL'
p4209
tp4210
(lp4211
S'BOS'
p4212
aS'MSP'
p4213
aS'PHL'
p4214
aS'LGA'
p4215
aS'DCA'
p4216
aS'EWR'
p4217
aS'BNA'
p4218
aS'RSW'
p4219
as(S'ORD'
p4220
S'CLT'
p4221
tp4222
(lp4223
S'MLB'
p4224
aS'GSP'
p4225
aS'MIA'
p4226
aS'ATL'
p4227
aS'ILM'
p4228
aS'OAJ'
p4229
aS'FLL'
p4230
aS'FLO'
p4231
aS'AGS'
p4232
aS'FAY'
p4233
aS'VPS'
p4234
aS'MYR'
p4235
aS'PGV'
p4236
aS'HSV'
p4237
aS'PIT'
p4238
aS'RDU'
p4239
aS'CHA'
p4240
aS'EWN'
p4241
aS'IAD'
p4242
aS'CHO'
p4243
aS'JAN'
p4244
aS'CHS'
p4245
aS'PBI'
p4246
aS'MCO'
p4247
aS'BHM'
p4248
aS'DAB'
p4249
aS'PHF'
p4250
aS'MGM'
p4251
aS'AVL'
p4252
aS'ORF'
p4253
aS'TYS'
p4254
as(S'LAX'
p4255
S'MKE'
p4256
tp4257
(lp4258
S'LGA'
p4259
as(S'SFO'
p4260
S'JFK'
p4261
tp4262
(lp4263
S'MCO'
p4264
aS'RDU'
p4265
aS'LGA'
p4266
aS'BOS'
p4267
aS'IAD'
p4268
aS'ROC'
p4269
aS'DCA'
p4270
aS'SYR'
p4271
aS'BTV'
p4272
aS'SJU'
p4273
aS'BUF'
p4274
aS'PIT'
p4275
as(S'HOU'
p4276
S'ABQ'
p4277
tp4278
(lp4279
S'SAN'
p4280
aS'DEN'
p4281
aS'LAS'
p4282
as(S'DEN'
p4283
S'MSP'
p4284
tp4285
(lp4286
S'FAR'
p4287
aS'BMI'
p4288
as(S'TPA'
p4289
S'RDU'
p4290
tp4291
(lp4292
S'BWI'
p4293
aS'BOS'
p4294
aS'PHL'
p4295
as(S'MIA'
p4296
S'LAS'
p4297
tp4298
(lp4299
S'SFO'
p4300
aS'LAX'
p4301
as(S'DAL'
p4302
S'ATL'
p4303
tp4304
(lp4305
S'RDU'
p4306
aS'MCO'
p4307
aS'TPA'
p4308
aS'MIA'
p4309
aS'BWI'
p4310
aS'AGS'
p4311
as(S'CVG'
p4312
S'ORD'
p4313
tp4314
(lp4315
S'MSN'
p4316
aS'MKE'
p4317
aS'CID'
p4318
aS'MIA'
p4319
aS'BOS'
p4320
aS'MSP'
p4321
aS'XNA'
p4322
aS'ATW'
p4323
aS'DEN'
p4324
aS'EWR'
p4325
aS'SMF'
p4326
aS'SAN'
p4327
aS'ROC'
p4328
aS'SEA'
p4329
aS'TUL'
p4330
aS'SGF'
p4331
aS'IAH'
p4332
aS'TPA'
p4333
aS'PDX'
p4334
aS'STL'
p4335
aS'DFW'
p4336
aS'AUS'
p4337
aS'DSM'
p4338
aS'GRB'
p4339
aS'SJC'
p4340
aS'ICT'
p4341
aS'OMA'
p4342
aS'BTV'
p4343
aS'MCI'
p4344
aS'SNA'
p4345
aS'LGA'
p4346
aS'SFO'
p4347
aS'OKC'
p4348
aS'PHX'
p4349
aS'LAX'
p4350
aS'LAS'
p4351
as(S'TPA'
p4352
S'BWI'
p4353
tp4354
(lp4355
S'FNT'
p4356
aS'EWR'
p4357
aS'LGA'
p4358
aS'BOS'
p4359
as(S'PHX'
p4360
S'SJC'
p4361
tp4362
(lp4363
S'SFO'
p4364
as(S'SFO'
p4365
S'SEA'
p4366
tp4367
(lp4368
S'BZN'
p4369
aS'BIL'
p4370
aS'BLI'
p4371
aS'EUG'
p4372
as(S'DEN'
p4373
S'MEM'
p4374
tp4375
(lp4376
S'CLT'
p4377
as(S'SLC'
p4378
S'BWI'
p4379
tp4380
(lp4381
S'RDU'
p4382
aS'BDL'
p4383
aS'BOS'
p4384
aS'ALB'
p4385
aS'PVD'
p4386
aS'MHT'
p4387
aS'BUF'
p4388
as(S'MSP'
p4389
S'SLC'
p4390
tp4391
(lp4392
S'RNO'
p4393
aS'SAN'
p4394
aS'PDX'
p4395
aS'BUR'
p4396
aS'GJT'
p4397
aS'TUS'
p4398
aS'OAK'
p4399
aS'FAT'
p4400
aS'PSP'
p4401
aS'JAC'
p4402
aS'ONT'
p4403
as(S'MSY'
p4404
S'PHL'
p4405
tp4406
(lp4407
S'LGA'
p4408
aS'ITH'
p4409
aS'BOS'
p4410
aS'BTV'
p4411
aS'PVD'
p4412
aS'BWI'
p4413
as(S'TPA'
p4414
S'IAH'
p4415
tp4416
(lp4417
S'MKE'
p4418
aS'MSY'
p4419
aS'AEX'
p4420
aS'COS'
p4421
aS'DEN'
p4422
aS'DAL'
p4423
aS'SEA'
p4424
aS'SLC'
p4425
aS'ONT'
p4426
aS'SAT'
p4427
aS'SHV'
p4428
aS'PDX'
p4429
aS'STL'
p4430
aS'DFW'
p4431
aS'ABQ'
p4432
aS'AUS'
p4433
aS'GRK'
p4434
aS'ICT'
p4435
aS'OMA'
p4436
aS'MCI'
p4437
aS'BTR'
p4438
aS'PHX'
p4439
aS'LAS'
p4440
as(S'HOU'
p4441
S'PHX'
p4442
tp4443
(lp4444
S'RNO'
p4445
aS'SAN'
p4446
aS'SNA'
p4447
aS'SFO'
p4448
aS'LAX'
p4449
aS'LAS'
p4450
as(S'TPA'
p4451
S'HOU'
p4452
tp4453
(lp4454
S'SAN'
p4455
aS'DAL'
p4456
aS'ABQ'
p4457
aS'AUS'
p4458
aS'LAX'
p4459
aS'DEN'
p4460
aS'ELP'
p4461
aS'SAT'
p4462
as(S'PIT'
p4463
S'LGA'
p4464
tp4465
(lp4466
S'JFK'
p4467
aS'PWM'
p4468
aS'MCI'
p4469
aS'BTV'
p4470
aS'FLL'
p4471
aS'MHT'
p4472
aS'RSW'
p4473
aS'PBI'
p4474
as(S'TPA'
p4475
S'MCI'
p4476
tp4477
(lp4478
S'LAX'
p4479
aS'DEN'
p4480
aS'PDX'
p4481
as(S'BUR'
p4482
S'SEA'
p4483
tp4484
(lp4485
S'PSC'
p4486
aS'BLI'
p4487
as(S'STL'
p4488
S'LGA'
p4489
tp4490
(lp4491
S'JFK'
p4492
aS'MHT'
p4493
as(S'ORD'
p4494
S'SEA'
p4495
tp4496
(lp4497
S'OAK'
p4498
as(S'MKE'
p4499
S'LAX'
p4500
tp4501
(lp4502
S'SFO'
p4503
as(S'ATL'
p4504
S'AUS'
p4505
tp4506
(lp4507
S'DAL'
p4508
aS'ELP'
p4509
aS'LBB'
p4510
aS'SAN'
p4511
as(S'DAL'
p4512
S'HOU'
p4513
tp4514
(lp4515
S'BKG'
p4516
aS'BOS'
p4517
as(S'PHL'
p4518
S'IAH'
p4519
tp4520
(lp4521
S'COS'
p4522
aS'SAN'
p4523
aS'MSY'
p4524
aS'PDX'
p4525
aS'DFW'
p4526
aS'BTR'
p4527
aS'SNA'
p4528
aS'ABQ'
p4529
aS'AUS'
p4530
aS'PHX'
p4531
aS'LAX'
p4532
aS'SEA'
p4533
aS'SMF'
p4534
aS'SJC'
p4535
aS'LAS'
p4536
aS'ONT'
p4537
aS'SAT'
p4538
as(S'SNA'
p4539
S'SLC'
p4540
tp4541
(lp4542
S'PSC'
p4543
aS'SEA'
p4544
as(S'BWI'
p4545
S'LAX'
p4546
tp4547
(lp4548
S'CLD'
p4549
aS'SFO'
p4550
aS'SAN'
p4551
as(S'LAX'
p4552
S'MIA'
p4553
tp4554
(lp4555
S'MCO'
p4556
aS'GNV'
p4557
aS'TPA'
p4558
aS'JAX'
p4559
aS'CHS'
p4560
aS'FLL'
p4561
as(S'DAL'
p4562
S'MCI'
p4563
tp4564
(lp4565
S'BOS'
p4566
as(S'ORD'
p4567
S'MSY'
p4568
tp4569
(lp4570
S'IAH'
p4571
as(S'TPA'
p4572
S'MSP'
p4573
tp4574
(lp4575
S'OMA'
p4576
aS'FSD'
p4577
aS'DEN'
p4578
aS'MKE'
p4579
aS'MSN'
p4580
aS'DSM'
p4581
aS'GRB'
p4582
aS'SEA'
p4583
aS'SLC'
p4584
aS'BIL'
p4585
aS'LAS'
p4586
as(S'MEM'
p4587
S'DCA'
p4588
tp4589
(lp4590
S'BUF'
p4591
aS'LGA'
p4592
aS'PIT'
p4593
aS'PHL'
p4594
aS'PWM'
p4595
as(S'BWI'
p4596
S'ATL'
p4597
tp4598
(lp4599
S'GSP'
p4600
aS'TPA'
p4601
aS'MIA'
p4602
aS'MEM'
p4603
aS'SDF'
p4604
aS'CHS'
p4605
aS'FLL'
p4606
aS'CLT'
p4607
as(S'DCA'
p4608
S'SEA'
p4609
tp4610
(lp4611
S'GEG'
p4612
aS'PDX'
p4613
as(S'JFK'
p4614
S'ATL'
p4615
tp4616
(lp4617
S'MLB'
p4618
aS'GNV'
p4619
aS'DAB'
p4620
aS'MSY'
p4621
aS'AUS'
p4622
aS'AGS'
p4623
aS'SAV'
p4624
as(S'JFK'
p4625
S'SJC'
p4626
tp4627
(lp4628
S'SFO'
p4629
as(S'PHX'
p4630
S'ORD'
p4631
tp4632
(lp4633
S'MKE'
p4634
aS'FNT'
p4635
aS'ROC'
p4636
aS'BOS'
p4637
aS'MSP'
p4638
aS'MSN'
p4639
aS'BMI'
p4640
aS'PVD'
p4641
aS'BWI'
p4642
aS'PIT'
p4643
aS'RIC'
p4644
aS'MDT'
p4645
aS'RDU'
p4646
aS'GRR'
p4647
aS'STL'
p4648
aS'IND'
p4649
aS'DSM'
p4650
aS'HPN'
p4651
aS'CLT'
p4652
aS'MHT'
p4653
aS'PHL'
p4654
aS'BUF'
p4655
aS'LGA'
p4656
aS'DAY'
p4657
aS'SYR'
p4658
aS'SDF'
p4659
aS'DBQ'
p4660
aS'PWM'
p4661
aS'TYS'
p4662
as(S'SFO'
p4663
S'LAS'
p4664
tp4665
(lp4666
S'ONT'
p4667
as(S'ORD'
p4668
S'MIA'
p4669
tp4670
(lp4671
S'MCO'
p4672
aS'SJU'
p4673
as(S'LAX'
p4674
S'LIH'
p4675
tp4676
(lp4677
S'HNL'
p4678
as(S'IAH'
p4679
S'MCO'
p4680
tp4681
(lp4682
S'MIA'
p4683
as(S'MDW'
p4684
S'BWI'
p4685
tp4686
(lp4687
S'RDU'
p4688
aS'ISP'
p4689
aS'BOS'
p4690
aS'LGA'
p4691
aS'PWM'
p4692
aS'PBI'
p4693
as(S'SNA'
p4694
S'EWR'
p4695
tp4696
(lp4697
S'BOS'
p4698
aS'PHL'
p4699
aS'LGA'
p4700
aS'DCA'
p4701
aS'BWI'
p4702
aS'PIT'
p4703
as(S'BNA'
p4704
S'LAX'
p4705
tp4706
(lp4707
S'SFO'
p4708
aS'SAN'
p4709
aS'SEA'
p4710
aS'LAS'
p4711
as(S'FLL'
p4712
S'EWR'
p4713
tp4714
(lp4715
S'JFK'
p4716
aS'LGA'
p4717
aS'ROC'
p4718
aS'CMH'
p4719
aS'ALB'
p4720
aS'BOS'
p4721
aS'AVP'
p4722
aS'DCA'
p4723
aS'SYR'
p4724
aS'BTV'
p4725
aS'PVD'
p4726
aS'SEA'
p4727
aS'BDL'
p4728
aS'IND'
p4729
aS'MHT'
p4730
aS'PWM'
p4731
aS'BUF'
p4732
aS'DAY'
p4733
aS'PIT'
p4734
as(S'LAX'
p4735
S'EWR'
p4736
tp4737
(lp4738
S'JFK'
p4739
aS'AVP'
p4740
aS'PWM'
p4741
aS'BOS'
p4742
aS'ABE'
p4743
aS'ITH'
p4744
aS'LGA'
p4745
aS'BDL'
p4746
aS'ROC'
p4747
aS'ALB'
p4748
aS'SJU'
p4749
aS'SYR'
p4750
aS'BTV'
p4751
aS'PVD'
p4752
aS'ORF'
p4753
aS'BWI'
p4754
aS'MHT'
p4755
aS'DCA'
p4756
aS'BUF'
p4757
aS'RIC'
p4758
aS'MDT'
p4759
as(S'SNA'
p4760
S'MSP'
p4761
tp4762
(lp4763
S'JFK'
p4764
aS'MKE'
p4765
aS'FSD'
p4766
aS'CID'
p4767
aS'MSN'
p4768
aS'DTW'
p4769
aS'FAR'
p4770
aS'DCA'
p4771
aS'BWI'
p4772
aS'PHL'
p4773
aS'PIT'
p4774
aS'DAY'
p4775
aS'GRR'
p4776
aS'STL'
p4777
aS'CLE'
p4778
aS'DSM'
p4779
aS'GRB'
p4780
aS'CWA'
p4781
aS'MCI'
p4782
aS'ATW'
p4783
aS'LGA'
p4784
aS'GFK'
p4785
aS'SDF'
p4786
aS'IND'
p4787
aS'ORD'
p4788
as(S'SNA'
p4789
S'PDX'
p4790
tp4791
(lp4792
S'RDM'
p4793
aS'PSC'
p4794
aS'EUG'
p4795
as(S'LAX'
p4796
S'MCO'
p4797
tp4798
(lp4799
S'MIA'
p4800
aS'FLL'
p4801
as(S'EWR'
p4802
S'BNA'
p4803
tp4804
(lp4805
S'MCO'
p4806
aS'TPA'
p4807
aS'MSY'
p4808
aS'JAX'
p4809
aS'HOU'
p4810
aS'FLL'
p4811
as(S'MSP'
p4812
S'TPA'
p4813
tp4814
(lp4815
S'MCO'
p4816
as(S'ONT'
p4817
S'DFW'
p4818
tp4819
(lp4820
S'CHA'
p4821
aS'MKE'
p4822
aS'IAH'
p4823
aS'MCI'
p4824
aS'STL'
p4825
aS'LGA'
p4826
aS'FSM'
p4827
aS'MSP'
p4828
aS'DSM'
p4829
aS'AUS'
p4830
aS'HOU'
p4831
aS'FLL'
p4832
aS'EWR'
p4833
aS'ORD'
p4834
aS'OMA'
p4835
as(S'PHX'
p4836
S'OGG'
p4837
tp4838
(lp4839
S'HNL'
p4840
as(S'DTW'
p4841
S'MEM'
p4842
tp4843
(lp4844
S'JAN'
p4845
aS'MSY'
p4846
as(S'MSP'
p4847
S'DEN'
p4848
tp4849
(lp4850
S'AZA'
p4851
as(S'LAS'
p4852
S'MDW'
p4853
tp4854
(lp4855
S'BOS'
p4856
aS'MSP'
p4857
aS'CAK'
p4858
aS'DSM'
p4859
aS'CLT'
p4860
aS'EWR'
p4861
aS'DTW'
p4862
as(S'LGA'
p4863
S'MIA'
p4864
tp4865
(lp4866
S'MCO'
p4867
aS'TPA'
p4868
as(S'ATL'
p4869
S'CHS'
p4870
tp4871
(lp4872
S'LGA'
p4873
as(S'SEA'
p4874
S'OGG'
p4875
tp4876
(lp4877
S'KOA'
p4878
aS'LIH'
p4879
as(S'COS'
p4880
S'DFW'
p4881
tp4882
(lp4883
S'SHV'
p4884
aS'MCI'
p4885
aS'STL'
p4886
aS'AUS'
p4887
aS'LIT'
p4888
aS'OKC'
p4889
aS'ACT'
p4890
aS'LAW'
p4891
aS'GRK'
p4892
aS'TYR'
p4893
aS'SAT'
p4894
as(S'MKE'
p4895
S'ATL'
p4896
tp4897
(lp4898
S'MLB'
p4899
aS'MCO'
p4900
aS'LGA'
p4901
aS'TPA'
p4902
aS'MSY'
p4903
aS'PHL'
p4904
aS'IAD'
p4905
aS'PNS'
p4906
aS'BOS'
p4907
aS'DCA'
p4908
aS'ABQ'
p4909
aS'FLL'
p4910
aS'CLT'
p4911
aS'BWI'
p4912
aS'RSW'
p4913
aS'PBI'
p4914
aS'CAE'
p4915
as(S'CLE'
p4916
S'SFO'
p4917
tp4918
(lp4919
S'EUG'
p4920
aS'SAN'
p4921
aS'SNA'
p4922
as(S'SNA'
p4923
S'DFW'
p4924
tp4925
(lp4926
S'GSP'
p4927
aS'MKE'
p4928
aS'MSY'
p4929
aS'CID'
p4930
aS'MIA'
p4931
aS'AEX'
p4932
aS'ATL'
p4933
aS'BOS'
p4934
aS'FWA'
p4935
aS'MSP'
p4936
aS'LIT'
p4937
aS'MSN'
p4938
aS'FLL'
p4939
aS'ACT'
p4940
aS'CVG'
p4941
aS'DTW'
p4942
aS'EVV'
p4943
aS'IAH'
p4944
aS'TPA'
p4945
aS'VPS'
p4946
aS'AMA'
p4947
aS'PIA'
p4948
aS'SDF'
p4949
aS'DCA'
p4950
aS'SPI'
p4951
aS'LBB'
p4952
aS'IAD'
p4953
aS'BWI'
p4954
aS'PIT'
p4955
aS'DAY'
p4956
aS'SAT'
p4957
aS'CLL'
p4958
aS'BTR'
p4959
aS'MHK'
p4960
aS'SHV'
p4961
aS'STL'
p4962
aS'CLE'
p4963
aS'MLI'
p4964
aS'FSM'
p4965
aS'JAN'
p4966
aS'AUS'
p4967
aS'CHS'
p4968
aS'CLT'
p4969
aS'EWR'
p4970
aS'BNA'
p4971
aS'PBI'
p4972
aS'GRK'
p4973
aS'ICT'
p4974
aS'MCO'
p4975
aS'ABI'
p4976
aS'OMA'
p4977
aS'MCI'
p4978
aS'PHL'
p4979
aS'PNS'
p4980
aS'LGA'
p4981
aS'RIC'
p4982
aS'OKC'
p4983
aS'DSM'
p4984
aS'TUL'
p4985
aS'TYR'
p4986
aS'IND'
p4987
aS'ORD'
p4988
aS'RSW'
p4989
aS'HOU'
p4990
aS'TYS'
p4991
as(S'IAH'
p4992
S'SEA'
p4993
tp4994
(lp4995
S'GEG'
p4996
as(S'LAS'
p4997
S'SFO'
p4998
tp4999
(lp5000
S'RNO'
p5001
aS'PDX'
p5002
aS'PSC'
p5003
aS'EUG'
p5004
aS'BOI'
p5005
aS'SEA'
p5006
aS'RDM'
p5007
as(S'BWI'
p5008
S'DEN'
p5009
tp5010
(lp5011
S'TUS'
p5012
aS'ABQ'
p5013
aS'PHX'
p5014
aS'SEA'
p5015
aS'ONT'
p5016
aS'LAS'
p5017
as(S'DCA'
p5018
S'MSP'
p5019
tp5020
(lp5021
S'MSN'
p5022
aS'OMA'
p5023
aS'SAN'
p5024
aS'MCI'
p5025
aS'SNA'
p5026
aS'DLH'
p5027
aS'SFO'
p5028
aS'DSM'
p5029
aS'LNK'
p5030
aS'LAX'
p5031
aS'DEN'
p5032
aS'SJC'
p5033
aS'ICT'
p5034
aS'LAS'
p5035
as(S'HOU'
p5036
S'DAL'
p5037
tp5038
(lp5039
S'BKG'
p5040
as(S'SFO'
p5041
S'IAH'
p5042
tp5043
(lp5044
S'GSP'
p5045
aS'MKE'
p5046
aS'MSY'
p5047
aS'CMH'
p5048
aS'MIA'
p5049
aS'ATL'
p5050
aS'BOS'
p5051
aS'TPA'
p5052
aS'CRP'
p5053
aS'LIT'
p5054
aS'CLT'
p5055
aS'FLL'
p5056
aS'CVG'
p5057
aS'DTW'
p5058
aS'MFE'
p5059
aS'VPS'
p5060
aS'SDF'
p5061
aS'LFT'
p5062
aS'HSV'
p5063
aS'BWI'
p5064
aS'PHL'
p5065
aS'PIT'
p5066
aS'SAV'
p5067
aS'SHV'
p5068
aS'CLE'
p5069
aS'DFW'
p5070
aS'JAX'
p5071
aS'SJU'
p5072
aS'JAN'
p5073
aS'HRL'
p5074
aS'AUS'
p5075
aS'CHS'
p5076
aS'MLU'
p5077
aS'GPT'
p5078
aS'BNA'
p5079
aS'PBI'
p5080
aS'ICT'
p5081
aS'MCO'
p5082
aS'OMA'
p5083
aS'BHM'
p5084
aS'BTR'
p5085
aS'MEM'
p5086
aS'PNS'
p5087
aS'LGA'
p5088
aS'OKC'
p5089
aS'IND'
p5090
aS'MOB'
p5091
aS'RSW'
p5092
aS'LCH'
p5093
aS'TYS'
p5094
as(S'IAH'
p5095
S'LAS'
p5096
tp5097
(lp5098
S'LAX'
p5099
as(S'CLT'
p5100
S'JAX'
p5101
tp5102
(lp5103
S'TPA'
p5104
as(S'ORD'
p5105
S'TUL'
p5106
tp5107
(lp5108
S'DFW'
p5109
as(S'IAD'
p5110
S'LAX'
p5111
tp5112
(lp5113
S'SBP'
p5114
aS'MRY'
p5115
aS'SNA'
p5116
aS'TUS'
p5117
aS'FAT'
p5118
aS'SFO'
p5119
aS'PHX'
p5120
aS'SEA'
p5121
aS'SJC'
p5122
aS'PSP'
p5123
aS'LAS'
p5124
as(S'MCO'
p5125
S'EWR'
p5126
tp5127
(lp5128
S'JFK'
p5129
aS'MKE'
p5130
aS'CMH'
p5131
aS'AVP'
p5132
aS'BOS'
p5133
aS'MSP'
p5134
aS'MSN'
p5135
aS'ROC'
p5136
aS'PVD'
p5137
aS'SEA'
p5138
aS'BDL'
p5139
aS'BUF'
p5140
aS'DAY'
p5141
aS'MDT'
p5142
aS'GRR'
p5143
aS'ABE'
p5144
aS'CLE'
p5145
aS'IND'
p5146
aS'MHT'
p5147
aS'BTV'
p5148
aS'ITH'
p5149
aS'PIT'
p5150
aS'LGA'
p5151
aS'ALB'
p5152
aS'SYR'
p5153
aS'ORF'
p5154
aS'PWM'
p5155
as(S'MDW'
p5156
S'HOU'
p5157
tp5158
(lp5159
S'DAL'
p5160
as(S'BWI'
p5161
S'MCI'
p5162
tp5163
(lp5164
S'DAL'
p5165
aS'ABQ'
p5166
aS'MSP'
p5167
as(S'LGA'
p5168
S'FLL'
p5169
tp5170
(lp5171
S'MCO'
p5172
aS'MIA'
p5173
aS'ATL'
p5174
aS'LAX'
p5175
aS'TPA'
p5176
as(S'PHX'
p5177
S'CLT'
p5178
tp5179
(lp5180
S'JFK'
p5181
aS'GSP'
p5182
aS'SJU'
p5183
aS'MYR'
p5184
aS'GNV'
p5185
aS'CRW'
p5186
aS'MSY'
p5187
aS'CMH'
p5188
aS'MIA'
p5189
aS'AVP'
p5190
aS'ATL'
p5191
aS'BOS'
p5192
aS'OAJ'
p5193
aS'LIT'
p5194
aS'DTW'
p5195
aS'FLL'
p5196
aS'FLO'
p5197
aS'CVG'
p5198
aS'AGS'
p5199
aS'BNA'
p5200
aS'CAE'
p5201
aS'ABE'
p5202
aS'FAY'
p5203
aS'TPA'
p5204
aS'DAB'
p5205
aS'ROA'
p5206
aS'SAV'
p5207
aS'ROC'
p5208
aS'HHH'
p5209
aS'PGV'
p5210
aS'BUF'
p5211
aS'HSV'
p5212
aS'PVD'
p5213
aS'CLE'
p5214
aS'BWI'
p5215
aS'PIT'
p5216
aS'RIC'
p5217
aS'MDT'
p5218
aS'RDU'
p5219
aS'CHA'
p5220
aS'ILM'
p5221
aS'EWN'
p5222
aS'JAX'
p5223
aS'BDL'
p5224
aS'CHO'
p5225
aS'LEX'
p5226
aS'SRQ'
p5227
aS'HPN'
p5228
aS'EWR'
p5229
aS'MHT'
p5230
aS'TLH'
p5231
aS'PBI'
p5232
aS'IND'
p5233
aS'MCO'
p5234
aS'CAK'
p5235
aS'PWM'
p5236
aS'BHM'
p5237
aS'PHL'
p5238
aS'MEM'
p5239
aS'LYH'
p5240
aS'PNS'
p5241
aS'LGA'
p5242
aS'ALB'
p5243
aS'PHF'
p5244
aS'DAY'
p5245
aS'AVL'
p5246
aS'SYR'
p5247
aS'SDF'
p5248
aS'CHS'
p5249
aS'HTS'
p5250
aS'ORF'
p5251
aS'GSO'
p5252
aS'RSW'
p5253
aS'TRI'
p5254
aS'TYS'
p5255
as(S'ATL'
p5256
S'ORD'
p5257
tp5258
(lp5259
S'MKE'
p5260
aS'STL'
p5261
aS'MLI'
p5262
aS'MSP'
p5263
aS'IND'
p5264
aS'DTW'
p5265
as(S'HOU'
p5266
S'ATL'
p5267
tp5268
(lp5269
S'LGA'
p5270
aS'MLI'
p5271
aS'DAY'
p5272
aS'CAK'
p5273
aS'EWR'
p5274
aS'MDW'
p5275
as(S'DEN'
p5276
S'LAS'
p5277
tp5278
(lp5279
S'SAN'
p5280
as(S'LAS'
p5281
S'SAT'
p5282
tp5283
(lp5284
S'DAL'
p5285
as(S'BWI'
p5286
S'DTW'
p5287
tp5288
(lp5289
S'IND'
p5290
aS'MEM'
p5291
aS'SDF'
p5292
aS'BUF'
p5293
aS'CMH'
p5294
as(S'PHL'
p5295
S'CLE'
p5296
tp5297
(lp5298
S'MKE'
p5299
aS'FNT'
p5300
aS'GRR'
p5301
aS'IAH'
p5302
aS'MCI'
p5303
aS'CMH'
p5304
aS'PIT'
p5305
aS'ERI'
p5306
aS'CLT'
p5307
aS'MSN'
p5308
aS'SDF'
p5309
aS'LAX'
p5310
aS'IND'
p5311
aS'ORD'
p5312
aS'BUF'
p5313
aS'DAY'
p5314
aS'LAS'
p5315
as(S'OAK'
p5316
S'LAX'
p5317
tp5318
(lp5319
S'PHX'
p5320
aS'SAN'
p5321
as(S'SLC'
p5322
S'MEM'
p5323
tp5324
(lp5325
S'RDU'
p5326
aS'PIT'
p5327
aS'MSY'
p5328
aS'TPA'
p5329
aS'CMH'
p5330
as(S'HOU'
p5331
S'MDW'
p5332
tp5333
(lp5334
S'CAK'
p5335
aS'LGA'
p5336
aS'BUF'
p5337
aS'ROC'
p5338
as(S'EWR'
p5339
S'IAH'
p5340
tp5341
(lp5342
S'TUS'
p5343
aS'MSY'
p5344
aS'LIT'
p5345
aS'SMF'
p5346
aS'LFT'
p5347
aS'SLC'
p5348
aS'ONT'
p5349
aS'SAT'
p5350
aS'SHV'
p5351
aS'DFW'
p5352
aS'JAN'
p5353
aS'ABQ'
p5354
aS'AUS'
p5355
aS'GPT'
p5356
aS'SJC'
p5357
aS'ELP'
p5358
aS'GRK'
p5359
aS'ICT'
p5360
aS'BHM'
p5361
aS'SNA'
p5362
aS'PNS'
p5363
aS'BTR'
p5364
aS'OKC'
p5365
aS'PHX'
p5366
aS'TUL'
p5367
aS'LCH'
p5368
as(S'MKE'
p5369
S'LGA'
p5370
tp5371
(lp5372
S'JFK'
p5373
as(S'SLC'
p5374
S'MSP'
p5375
tp5376
(lp5377
S'RDU'
p5378
aS'MKE'
p5379
aS'ROC'
p5380
aS'FSD'
p5381
aS'TPA'
p5382
aS'CID'
p5383
aS'STL'
p5384
aS'LGA'
p5385
aS'DCA'
p5386
aS'MSN'
p5387
aS'SDF'
p5388
aS'DSM'
p5389
aS'GRR'
p5390
aS'IND'
p5391
aS'EWR'
p5392
aS'ORD'
p5393
aS'PIT'
p5394
aS'DAY'
p5395
as(S'CLT'
p5396
S'MSP'
p5397
tp5398
(lp5399
S'MKE'
p5400
aS'SAN'
p5401
aS'FSD'
p5402
aS'LNK'
p5403
aS'DSM'
p5404
aS'GFK'
p5405
aS'FAR'
p5406
aS'PDX'
p5407
aS'OMA'
p5408
aS'SFO'
p5409
aS'PHX'
p5410
aS'LAX'
p5411
aS'DEN'
p5412
aS'SMF'
p5413
aS'SEA'
p5414
aS'RAP'
p5415
aS'LAS'
p5416
as(S'PHX'
p5417
S'IAH'
p5418
tp5419
(lp5420
S'MKE'
p5421
aS'LGA'
p5422
aS'MSY'
p5423
aS'CMH'
p5424
aS'MIA'
p5425
aS'AEX'
p5426
aS'BOS'
p5427
aS'TPA'
p5428
aS'LIT'
p5429
aS'GPT'
p5430
aS'FLL'
p5431
aS'CVG'
p5432
aS'DTW'
p5433
aS'SHV'
p5434
aS'VPS'
p5435
aS'OKC'
p5436
aS'DCA'
p5437
aS'HSV'
p5438
aS'BWI'
p5439
aS'PIT'
p5440
aS'SAV'
p5441
aS'SAT'
p5442
aS'RDU'
p5443
aS'JAX'
p5444
aS'STL'
p5445
aS'CLE'
p5446
aS'DFW'
p5447
aS'AUS'
p5448
aS'CLT'
p5449
aS'BNA'
p5450
aS'PBI'
p5451
aS'ICT'
p5452
aS'MCO'
p5453
aS'BHM'
p5454
aS'MCI'
p5455
aS'BTR'
p5456
aS'PNS'
p5457
aS'PHL'
p5458
aS'RIC'
p5459
aS'SDF'
p5460
aS'TUL'
p5461
aS'IND'
p5462
aS'RSW'
p5463
aS'LCH'
p5464
aS'TYS'
p5465
as(S'EWR'
p5466
S'MCO'
p5467
tp5468
(lp5469
S'TPA'
p5470
aS'MIA'
p5471
aS'PSE'
p5472
aS'FLL'
p5473
aS'RSW'
p5474
aS'PBI'
p5475
as(S'JAX'
p5476
S'BWI'
p5477
tp5478
(lp5479
S'BOS'
p5480
aS'ISP'
p5481
aS'BDL'
p5482
aS'ROC'
p5483
aS'PVD'
p5484
aS'EWR'
p5485
aS'MHT'
p5486
aS'PWM'
p5487
aS'BUF'
p5488
aS'PIT'
p5489
as(S'DCA'
p5490
S'STL'
p5491
tp5492
(lp5493
S'OMA'
p5494
aS'DEN'
p5495
aS'MCI'
p5496
aS'DAL'
p5497
aS'HOU'
p5498
aS'SEA'
p5499
aS'MDW'
p5500
aS'LAS'
p5501
as(S'AUS'
p5502
S'FLL'
p5503
tp5504
(lp5505
S'DCA'
p5506
as(S'HNL'
p5507
S'DFW'
p5508
tp5509
(lp5510
S'JFK'
p5511
aS'ORD'
p5512
aS'BHM'
p5513
aS'IAH'
p5514
aS'STL'
p5515
aS'ATL'
p5516
aS'LGA'
p5517
aS'ABQ'
p5518
aS'DSM'
p5519
aS'CLT'
p5520
aS'EWR'
p5521
aS'ELP'
p5522
aS'IND'
p5523
as(S'BNA'
p5524
S'EWR'
p5525
tp5526
(lp5527
S'BOS'
p5528
as(S'CLT'
p5529
S'PHX'
p5530
tp5531
(lp5532
S'BUR'
p5533
aS'RNO'
p5534
aS'PDX'
p5535
aS'LGB'
p5536
aS'TUS'
p5537
aS'OAK'
p5538
aS'FAT'
p5539
aS'ABQ'
p5540
aS'LAS'
p5541
aS'SJC'
p5542
aS'ELP'
p5543
aS'SNA'
p5544
aS'PSP'
p5545
aS'ONT'
p5546
aS'SLC'
p5547
as(S'MCO'
p5548
S'JFK'
p5549
tp5550
(lp5551
S'LGA'
p5552
aS'ROC'
p5553
aS'PHL'
p5554
as(S'PHX'
p5555
S'DTW'
p5556
tp5557
(lp5558
S'MKE'
p5559
aS'FNT'
p5560
aS'CMH'
p5561
aS'BOS'
p5562
aS'FWA'
p5563
aS'CAK'
p5564
aS'MSN'
p5565
aS'MHT'
p5566
aS'EVV'
p5567
aS'ROC'
p5568
aS'ERI'
p5569
aS'PVD'
p5570
aS'BWI'
p5571
aS'BUF'
p5572
aS'RIC'
p5573
aS'MDT'
p5574
aS'RDU'
p5575
aS'GRR'
p5576
aS'ELM'
p5577
aS'CLE'
p5578
aS'BGM'
p5579
aS'ORF'
p5580
aS'HPN'
p5581
aS'CLT'
p5582
aS'EWR'
p5583
aS'BNA'
p5584
aS'BTV'
p5585
aS'PHL'
p5586
aS'PIT'
p5587
aS'LGA'
p5588
aS'DAY'
p5589
aS'SYR'
p5590
aS'SDF'
p5591
aS'IND'
p5592
aS'PWM'
p5593
aS'SBN'
p5594
as(S'RDU'
p5595
S'TPA'
p5596
tp5597
(lp5598
S'FLL'
p5599
as(S'DFW'
p5600
S'PDX'
p5601
tp5602
(lp5603
S'SEA'
p5604
as(S'PHL'
p5605
S'STL'
p5606
tp5607
(lp5608
S'BHM'
p5609
aS'MSY'
p5610
aS'MCI'
p5611
aS'SDF'
p5612
aS'LAX'
p5613
aS'SEA'
p5614
aS'SAT'
p5615
aS'LAS'
p5616
as(S'GEG'
p5617
S'SLC'
p5618
tp5619
(lp5620
S'LGB'
p5621
aS'OAK'
p5622
aS'PHX'
p5623
aS'LAX'
p5624
aS'DEN'
p5625
aS'LAS'
p5626
as(S'PBI'
p5627
S'DTW'
p5628
tp5629
(lp5630
S'BOS'
p5631
aS'BDL'
p5632
aS'MKE'
p5633
aS'LAS'
p5634
aS'MSP'
p5635
as(S'MCI'
p5636
S'LAS'
p5637
tp5638
(lp5639
S'SFO'
p5640
aS'SLC'
p5641
aS'OAK'
p5642
aS'SNA'
p5643
as(S'CLT'
p5644
S'CVG'
p5645
tp5646
(lp5647
S'MKE'
p5648
aS'GRR'
p5649
aS'MCI'
p5650
aS'PHL'
p5651
aS'STL'
p5652
aS'BDL'
p5653
aS'BOS'
p5654
aS'SFO'
p5655
aS'LAX'
p5656
aS'DEN'
p5657
aS'BWI'
p5658
aS'ORD'
p5659
aS'PIT'
p5660
aS'BNA'
p5661
aS'LAS'
p5662
as(S'DEN'
p5663
S'STL'
p5664
tp5665
(lp5666
S'ATL'
p5667
aS'MDW'
p5668
as(S'MIA'
p5669
S'PHL'
p5670
tp5671
(lp5672
S'BWI'
p5673
aS'LGA'
p5674
as(S'DAL'
p5675
S'ABQ'
p5676
tp5677
(lp5678
S'SAN'
p5679
as(S'KOA'
p5680
S'SFO'
p5681
tp5682
(lp5683
S'RNO'
p5684
aS'SAN'
p5685
aS'PDX'
p5686
aS'BOI'
p5687
aS'PHX'
p5688
aS'LAX'
p5689
aS'SEA'
p5690
aS'SMF'
p5691
aS'LAS'
p5692
as(S'OGG'
p5693
S'PHX'
p5694
tp5695
(lp5696
S'LAS'
p5697
as(S'LAS'
p5698
S'ATL'
p5699
tp5700
(lp5701
S'MKE'
p5702
aS'FNT'
p5703
aS'MSY'
p5704
aS'CMH'
p5705
aS'BOS'
p5706
aS'OAJ'
p5707
aS'LIT'
p5708
aS'GPT'
p5709
aS'FLL'
p5710
aS'DTW'
p5711
aS'ROC'
p5712
aS'DCA'
p5713
aS'PVD'
p5714
aS'BWI'
p5715
aS'PIT'
p5716
aS'DAY'
p5717
aS'SAT'
p5718
aS'RDU'
p5719
aS'TPA'
p5720
aS'STL'
p5721
aS'BDL'
p5722
aS'ORF'
p5723
aS'CLT'
p5724
aS'BNA'
p5725
aS'MCO'
p5726
aS'CAK'
p5727
aS'BHM'
p5728
aS'PHL'
p5729
aS'BUF'
p5730
aS'LGA'
p5731
aS'ALB'
p5732
aS'RIC'
p5733
aS'SDF'
p5734
aS'IND'
p5735
aS'RSW'
p5736
as(S'CLE'
p5737
S'ORD'
p5738
tp5739
(lp5740
S'BNA'
p5741
aS'RSW'
p5742
aS'IAH'
p5743
as(S'SEA'
p5744
S'EWR'
p5745
tp5746
(lp5747
S'JFK'
p5748
aS'BOS'
p5749
aS'FLL'
p5750
aS'ROC'
p5751
aS'PVD'
p5752
aS'BDL'
p5753
aS'BWI'
p5754
aS'BUF'
p5755
aS'RIC'
p5756
aS'RDU'
p5757
aS'TPA'
p5758
aS'CLE'
p5759
aS'SJU'
p5760
aS'MHT'
p5761
aS'PBI'
p5762
aS'PWM'
p5763
aS'MCO'
p5764
aS'BTV'
p5765
aS'ITH'
p5766
aS'PIT'
p5767
aS'SYR'
p5768
aS'ORF'
p5769
aS'RSW'
p5770
as(S'ATL'
p5771
S'TPA'
p5772
tp5773
(lp5774
S'FNT'
p5775
aS'FLL'
p5776
as(S'LAX'
p5777
S'BWI'
p5778
tp5779
(lp5780
S'ISP'
p5781
aS'BDL'
p5782
aS'BOS'
p5783
aS'PVD'
p5784
aS'MHT'
p5785
aS'PWM'
p5786
aS'BUF'
p5787
as(S'LAS'
p5788
S'AUS'
p5789
tp5790
(lp5791
S'DAL'
p5792
aS'FLL'
p5793
as(S'PHX'
p5794
S'PDX'
p5795
tp5796
(lp5797
S'RDM'
p5798
aS'PSC'
p5799
aS'MFR'
p5800
aS'EUG'
p5801
aS'SEA'
p5802
as(S'PHL'
p5803
S'SFO'
p5804
tp5805
(lp5806
S'RNO'
p5807
aS'SAN'
p5808
aS'SNA'
p5809
aS'EUG'
p5810
aS'PDX'
p5811
aS'LAX'
p5812
aS'SEA'
p5813
aS'RDM'
p5814
aS'SMF'
p5815
aS'PSP'
p5816
aS'ONT'
p5817
aS'LAS'
p5818
as(S'ONT'
p5819
S'SEA'
p5820
tp5821
(lp5822
S'RDM'
p5823
aS'MFR'
p5824
aS'BLI'
p5825
as(S'DFW'
p5826
S'MSP'
p5827
tp5828
(lp5829
S'OMA'
p5830
aS'SEA'
p5831
aS'ROC'
p5832
aS'GEG'
p5833
aS'RAP'
p5834
aS'IND'
p5835
aS'LAX'
p5836
aS'ORD'
p5837
aS'MDW'
p5838
as(S'MSP'
p5839
S'STL'
p5840
tp5841
(lp5842
S'RDU'
p5843
aS'BWI'
p5844
aS'MSY'
p5845
as(S'JFK'
p5846
S'DFW'
p5847
tp5848
(lp5849
S'SFO'
p5850
aS'ABQ'
p5851
aS'AUS'
p5852
aS'SAT'
p5853
as(S'BOS'
p5854
S'CLT'
p5855
tp5856
(lp5857
S'FAY'
p5858
aS'PBI'
p5859
as(S'LAX'
p5860
S'MSP'
p5861
tp5862
(lp5863
S'JFK'
p5864
aS'MKE'
p5865
aS'FNT'
p5866
aS'FSD'
p5867
aS'CMH'
p5868
aS'MIA'
p5869
aS'BOS'
p5870
aS'FWA'
p5871
aS'FLL'
p5872
aS'CVG'
p5873
aS'DTW'
p5874
aS'CID'
p5875
aS'DCA'
p5876
aS'IAD'
p5877
aS'BWI'
p5878
aS'BUF'
p5879
aS'DAY'
p5880
aS'RDU'
p5881
aS'GRR'
p5882
aS'TPA'
p5883
aS'STL'
p5884
aS'BDL'
p5885
aS'DFW'
p5886
aS'ABR'
p5887
aS'DSM'
p5888
aS'CLT'
p5889
aS'EWR'
p5890
aS'BNA'
p5891
aS'ICT'
p5892
aS'MCO'
p5893
aS'OMA'
p5894
aS'MCI'
p5895
aS'PHL'
p5896
aS'PIT'
p5897
aS'LGA'
p5898
aS'CLE'
p5899
aS'MDW'
p5900
aS'SYR'
p5901
aS'IND'
p5902
aS'ORD'
p5903
aS'RSW'
p5904
aS'SBN'
p5905
as(S'TPA'
p5906
S'BNA'
p5907
tp5908
(lp5909
S'GSP'
p5910
aS'PHL'
p5911
aS'STL'
p5912
aS'CLE'
p5913
aS'BOS'
p5914
aS'DEN'
p5915
aS'EWR'
p5916
aS'DTW'
p5917
as(S'PHL'
p5918
S'MIA'
p5919
tp5920
(lp5921
S'MCO'
p5922
as(S'SJC'
p5923
S'DFW'
p5924
tp5925
(lp5926
S'MSY'
p5927
aS'CMH'
p5928
aS'ATL'
p5929
aS'BOS'
p5930
aS'TPA'
p5931
aS'FLL'
p5932
aS'DTW'
p5933
aS'MFE'
p5934
aS'DCA'
p5935
aS'BWI'
p5936
aS'PHL'
p5937
aS'PIT'
p5938
aS'RIC'
p5939
aS'SAT'
p5940
aS'IAH'
p5941
aS'SHV'
p5942
aS'STL'
p5943
aS'IAD'
p5944
aS'AUS'
p5945
aS'CLT'
p5946
aS'EWR'
p5947
aS'PBI'
p5948
aS'GRK'
p5949
aS'MCO'
p5950
aS'OMA'
p5951
aS'MCI'
p5952
aS'BTR'
p5953
aS'LGA'
p5954
aS'OKC'
p5955
aS'TUL'
p5956
aS'ORD'
p5957
as(S'MIA'
p5958
S'CLT'
p5959
tp5960
(lp5961
S'JFK'
p5962
aS'TRI'
p5963
aS'MKE'
p5964
aS'SBY'
p5965
aS'DEN'
p5966
aS'MSY'
p5967
aS'CMH'
p5968
aS'ATL'
p5969
aS'BOS'
p5970
aS'OAJ'
p5971
aS'CAK'
p5972
aS'BDL'
p5973
aS'FLO'
p5974
aS'CVG'
p5975
aS'AGS'
p5976
aS'GSO'
p5977
aS'FAY'
p5978
aS'DTW'
p5979
aS'DCA'
p5980
aS'PGV'
p5981
aS'DAY'
p5982
aS'CLE'
p5983
aS'BWI'
p5984
aS'BUF'
p5985
aS'RIC'
p5986
aS'MDT'
p5987
aS'PIT'
p5988
aS'RDU'
p5989
aS'CHA'
p5990
aS'ILM'
p5991
aS'EWN'
p5992
aS'STL'
p5993
aS'IAD'
p5994
aS'CHO'
p5995
aS'ORF'
p5996
aS'CHS'
p5997
aS'EWR'
p5998
aS'BNA'
p5999
aS'BHM'
p6000
aS'MCI'
p6001
aS'PHL'
p6002
aS'MEM'
p6003
aS'LYH'
p6004
aS'LGA'
p6005
aS'PHF'
p6006
aS'SAV'
p6007
aS'SDF'
p6008
aS'IND'
p6009
aS'ORD'
p6010
aS'TYS'
p6011
as(S'LGA'
p6012
S'BOS'
p6013
tp6014
(lp6015
S'ROC'
p6016
aS'BUF'
p6017
as(S'EWR'
p6018
S'DEN'
p6019
tp6020
(lp6021
S'DRO'
p6022
aS'BUR'
p6023
aS'OAK'
p6024
aS'SEA'
p6025
aS'ONT'
p6026
aS'LAS'
p6027
as(S'ORD'
p6028
S'SAN'
p6029
tp6030
(lp6031
S'LAX'
p6032
as(S'MKE'
p6033
S'SEA'
p6034
tp6035
(lp6036
S'SMF'
p6037
as(S'SEA'
p6038
S'SNA'
p6039
tp6040
(lp6041
S'SAN'
p6042
as(S'ORD'
p6043
S'PHL'
p6044
tp6045
(lp6046
S'LGA'
p6047
aS'ILM'
p6048
aS'BGM'
p6049
aS'SWF'
p6050
aS'ROC'
p6051
aS'DCA'
p6052
aS'PVD'
p6053
aS'BWI'
p6054
aS'BUF'
p6055
aS'RDU'
p6056
aS'ISP'
p6057
aS'BOS'
p6058
aS'BDL'
p6059
aS'CHO'
p6060
aS'EWR'
p6061
aS'MHT'
p6062
aS'ITH'
p6063
aS'HVN'
p6064
aS'PIT'
p6065
aS'SBY'
p6066
aS'PHF'
p6067
aS'IPT'
p6068
aS'ORF'
p6069
as(S'PHX'
p6070
S'SLC'
p6071
tp6072
(lp6073
S'RNO'
p6074
aS'MFR'
p6075
aS'STL'
p6076
aS'PSC'
p6077
aS'GJT'
p6078
aS'OAK'
p6079
aS'AUS'
p6080
aS'BTM'
p6081
aS'OKC'
p6082
aS'DEN'
p6083
aS'RDM'
p6084
aS'SMF'
p6085
as(S'SFO'
p6086
S'IAD'
p6087
tp6088
(lp6089
S'JFK'
p6090
aS'GSP'
p6091
aS'CRW'
p6092
aS'CMH'
p6093
aS'MIA'
p6094
aS'BOS'
p6095
aS'BGM'
p6096
aS'FLL'
p6097
aS'CAE'
p6098
aS'FAY'
p6099
aS'JAX'
p6100
aS'SCE'
p6101
aS'ROC'
p6102
aS'DCA'
p6103
aS'PVD'
p6104
aS'BWI'
p6105
aS'BUF'
p6106
aS'DAY'
p6107
aS'MDT'
p6108
aS'TPA'
p6109
aS'BDL'
p6110
aS'SJU'
p6111
aS'CHS'
p6112
aS'SHD'
p6113
aS'RIC'
p6114
aS'CLT'
p6115
aS'EWR'
p6116
aS'CHO'
p6117
aS'MCO'
p6118
aS'PHL'
p6119
aS'LGA'
p6120
aS'ALB'
p6121
aS'SAV'
p6122
aS'SYR'
p6123
aS'ORF'
p6124
aS'GSO'
p6125
aS'PWM'
p6126
aS'TYS'
p6127
as(S'DAL'
p6128
S'OAK'
p6129
tp6130
(lp6131
S'ONT'
p6132
aS'PDX'
p6133
as(S'SFO'
p6134
S'BOS'
p6135
tp6136
(lp6137
S'MCO'
p6138
aS'JFK'
p6139
aS'IAD'
p6140
aS'DCA'
p6141
aS'EWR'
p6142
aS'BWI'
p6143
aS'BUF'
p6144
as(S'EWR'
p6145
S'CVG'
p6146
tp6147
(lp6148
S'MCO'
p6149
aS'ORD'
p6150
aS'LAX'
p6151
as(S'STL'
p6152
S'LAS'
p6153
tp6154
(lp6155
S'SFO'
p6156
aS'PHX'
p6157
aS'SAN'
p6158
aS'SNA'
p6159
as(S'CLE'
p6160
S'ATL'
p6161
tp6162
(lp6163
S'RDU'
p6164
aS'MCO'
p6165
aS'MLB'
p6166
aS'MSY'
p6167
aS'DAB'
p6168
aS'CHA'
p6169
aS'MIA'
p6170
aS'DFW'
p6171
aS'ILM'
p6172
aS'TPA'
p6173
aS'CHS'
p6174
aS'HOU'
p6175
aS'GSP'
p6176
aS'FLL'
p6177
aS'DEN'
p6178
aS'ECP'
p6179
aS'BNA'
p6180
aS'RSW'
p6181
aS'AGS'
p6182
aS'IAH'
p6183
aS'SAT'
p6184
as(S'SAN'
p6185
S'EWR'
p6186
tp6187
(lp6188
S'BTV'
p6189
aS'ROC'
p6190
aS'ITH'
p6191
aS'PHL'
p6192
aS'BDL'
p6193
aS'BOS'
p6194
aS'ALB'
p6195
aS'SJU'
p6196
aS'SYR'
p6197
aS'BUF'
p6198
aS'PVD'
p6199
aS'ORF'
p6200
aS'BWI'
p6201
aS'MHT'
p6202
aS'PWM'
p6203
aS'PIT'
p6204
aS'RIC'
p6205
as(S'BWI'
p6206
S'RDU'
p6207
tp6208
(lp6209
S'FLL'
p6210
aS'TPA'
p6211
as(S'JFK'
p6212
S'PHL'
p6213
tp6214
(lp6215
S'SFO'
p6216
aS'ATL'
p6217
aS'LAX'
p6218
as(S'DCA'
p6219
S'MEM'
p6220
tp6221
(lp6222
S'MCO'
p6223
aS'XNA'
p6224
aS'OMA'
p6225
aS'MSY'
p6226
aS'MCI'
p6227
aS'BTR'
p6228
aS'STL'
p6229
aS'DFW'
p6230
aS'TPA'
p6231
aS'JAN'
p6232
aS'LIT'
p6233
aS'AUS'
p6234
aS'DSM'
p6235
aS'LAX'
p6236
aS'DEN'
p6237
aS'IAH'
p6238
aS'LAS'
p6239
as(S'PHL'
p6240
S'DTW'
p6241
tp6242
(lp6243
S'MKE'
p6244
aS'MSY'
p6245
aS'CID'
p6246
aS'FWA'
p6247
aS'MSP'
p6248
aS'CAK'
p6249
aS'MSN'
p6250
aS'FLL'
p6251
aS'DEN'
p6252
aS'CMH'
p6253
aS'EVV'
p6254
aS'SAN'
p6255
aS'BMI'
p6256
aS'SEA'
p6257
aS'BUF'
p6258
aS'MDW'
p6259
aS'SAT'
p6260
aS'TPA'
p6261
aS'PDX'
p6262
aS'STL'
p6263
aS'DFW'
p6264
aS'MLI'
p6265
aS'AUS'
p6266
aS'DSM'
p6267
aS'BNA'
p6268
aS'MCO'
p6269
aS'LAN'
p6270
aS'BHM'
p6271
aS'MCI'
p6272
aS'MEM'
p6273
aS'PIT'
p6274
aS'DAY'
p6275
aS'SDF'
p6276
aS'PHX'
p6277
aS'LAX'
p6278
aS'IND'
p6279
aS'ORD'
p6280
aS'TYS'
p6281
aS'SBN'
p6282
aS'LAS'
p6283
as(S'CLT'
p6284
S'IAD'
p6285
tp6286
(lp6287
S'CMH'
p6288
aS'BOS'
p6289
aS'DEN'
p6290
aS'SAN'
p6291
aS'SYR'
p6292
aS'ROC'
p6293
aS'PVD'
p6294
aS'SEA'
p6295
aS'PIT'
p6296
aS'DAY'
p6297
aS'MDT'
p6298
aS'STL'
p6299
aS'BDL'
p6300
aS'BTV'
p6301
aS'PHL'
p6302
aS'BUF'
p6303
aS'ALB'
p6304
aS'SFO'
p6305
aS'LAX'
p6306
aS'IND'
p6307
aS'ORD'
p6308
aS'PWM'
p6309
aS'LAS'
p6310
as(S'PHX'
p6311
S'FLL'
p6312
tp6313
(lp6314
S'SJU'
p6315
as(S'DFW'
p6316
S'SFO'
p6317
tp6318
(lp6319
S'SBP'
p6320
aS'SAN'
p6321
aS'PDX'
p6322
aS'BUR'
p6323
aS'EUG'
p6324
aS'SBA'
p6325
aS'LAX'
p6326
aS'SEA'
p6327
aS'LAS'
p6328
as(S'MCI'
p6329
S'TPA'
p6330
tp6331
(lp6332
S'FLL'
p6333
as(S'SLC'
p6334
S'IAH'
p6335
tp6336
(lp6337
S'MCO'
p6338
aS'BHM'
p6339
aS'MSY'
p6340
aS'TPA'
p6341
aS'BTR'
p6342
aS'MIA'
p6343
aS'CLE'
p6344
aS'ATL'
p6345
aS'LGA'
p6346
aS'DCA'
p6347
aS'LIT'
p6348
aS'LFT'
p6349
aS'HSV'
p6350
aS'FLL'
p6351
aS'EWR'
p6352
aS'MOB'
p6353
aS'PIT'
p6354
aS'MFE'
p6355
as(S'MIA'
p6356
S'SFO'
p6357
tp6358
(lp6359
S'PDX'
p6360
as(S'MSP'
p6361
S'MEM'
p6362
tp6363
(lp6364
S'MCO'
p6365
aS'MSY'
p6366
aS'TYS'
p6367
as(S'SNA'
p6368
S'DEN'
p6369
tp6370
(lp6371
S'LIT'
p6372
aS'ABQ'
p6373
aS'BIL'
p6374
aS'MCI'
p6375
as(S'CLT'
p6376
S'FLL'
p6377
tp6378
(lp6379
S'MIA'
p6380
as(S'DFW'
p6381
S'CLE'
p6382
tp6383
(lp6384
S'ROC'
p6385
aS'ALB'
p6386
aS'SYR'
p6387
aS'MHT'
p6388
aS'BUF'
p6389
aS'ERI'
p6390
aS'MDT'
p6391
as(S'CLT'
p6392
S'LAX'
p6393
tp6394
(lp6395
S'SFO'
p6396
as(S'LAX'
p6397
S'ELP'
p6398
tp6399
(lp6400
S'DAL'
p6401
as(S'DFW'
p6402
S'SAN'
p6403
tp6404
(lp6405
S'SFO'
p6406
aS'LAX'
p6407
aS'SEA'
p6408
aS'SNA'
p6409
as(S'CLT'
p6410
S'PHL'
p6411
tp6412
(lp6413
S'BOS'
p6414
aS'BTV'
p6415
aS'ROC'
p6416
aS'ITH'
p6417
aS'ELM'
p6418
aS'ISP'
p6419
aS'BDL'
p6420
aS'LGA'
p6421
aS'ALB'
p6422
aS'BGM'
p6423
aS'SWF'
p6424
aS'SYR'
p6425
aS'BGR'
p6426
aS'PVD'
p6427
aS'MHT'
p6428
aS'BUF'
p6429
aS'ERI'
p6430
aS'PIT'
p6431
as(S'DFW'
p6432
S'MIA'
p6433
tp6434
(lp6435
S'MCO'
p6436
aS'TPA'
p6437
as(S'DFW'
p6438
S'SNA'
p6439
tp6440
(lp6441
S'LAX'
p6442
aS'SEA'
p6443
aS'PDX'
p6444
as(S'EWR'
p6445
S'JAX'
p6446
tp6447
(lp6448
S'TPA'
p6449
as(S'IAH'
p6450
S'PHL'
p6451
tp6452
(lp6453
S'BOS'
p6454
aS'ROC'
p6455
aS'ITH'
p6456
aS'ELM'
p6457
aS'LGA'
p6458
aS'BUF'
p6459
aS'SBY'
p6460
aS'DCA'
p6461
aS'HVN'
p6462
aS'PVD'
p6463
aS'BTV'
p6464
aS'ORF'
p6465
aS'BWI'
p6466
aS'MHT'
p6467
aS'SWF'
p6468
aS'PIT'
p6469
aS'MDT'
p6470
as(S'LGA'
p6471
S'PIT'
p6472
tp6473
(lp6474
S'RDU'
p6475
as(S'LAS'
p6476
S'ORD'
p6477
tp6478
(lp6479
S'MKE'
p6480
aS'CID'
p6481
aS'BOS'
p6482
aS'MSP'
p6483
aS'CAK'
p6484
aS'FLL'
p6485
aS'CMH'
p6486
aS'DTW'
p6487
aS'ROC'
p6488
aS'PVD'
p6489
aS'BWI'
p6490
aS'BUF'
p6491
aS'RIC'
p6492
aS'TPA'
p6493
aS'STL'
p6494
aS'CLE'
p6495
aS'ORF'
p6496
aS'DSM'
p6497
aS'CLT'
p6498
aS'MCO'
p6499
aS'BTV'
p6500
aS'PHL'
p6501
aS'PIT'
p6502
aS'DAY'
p6503
aS'SYR'
p6504
aS'IND'
p6505
as(S'LAX'
p6506
S'RDU'
p6507
tp6508
(lp6509
S'BWI'
p6510
aS'BOS'
p6511
aS'LGA'
p6512
as(S'DCA'
p6513
S'PBI'
p6514
tp6515
(lp6516
S'FLL'
p6517
as(S'SFO'
p6518
S'OGG'
p6519
tp6520
(lp6521
S'KOA'
p6522
aS'LIH'
p6523
aS'HNL'
p6524
as(S'IAH'
p6525
S'LAX'
p6526
tp6527
(lp6528
S'MRY'
p6529
aS'CLD'
p6530
aS'FAT'
p6531
aS'SBA'
p6532
aS'SJC'
p6533
aS'PSP'
p6534
aS'SAN'
p6535
as(S'PDX'
p6536
S'IAH'
p6537
tp6538
(lp6539
S'LGA'
p6540
aS'MSY'
p6541
aS'CMH'
p6542
aS'MIA'
p6543
aS'ATL'
p6544
aS'BOS'
p6545
aS'LIT'
p6546
aS'CLT'
p6547
aS'FLL'
p6548
aS'TPA'
p6549
aS'DCA'
p6550
aS'LFT'
p6551
aS'BWI'
p6552
aS'PIT'
p6553
aS'SAT'
p6554
aS'RDU'
p6555
aS'SHV'
p6556
aS'CLE'
p6557
aS'DFW'
p6558
aS'JAX'
p6559
aS'AUS'
p6560
aS'GPT'
p6561
aS'BNA'
p6562
aS'PBI'
p6563
aS'MCO'
p6564
aS'BTR'
p6565
aS'MEM'
p6566
aS'PNS'
p6567
aS'PHL'
p6568
aS'OKC'
p6569
aS'IND'
p6570
aS'MOB'
p6571
aS'RSW'
p6572
aS'TYS'
p6573
as(S'MKE'
p6574
S'BWI'
p6575
tp6576
(lp6577
S'PBI'
p6578
as(S'EWR'
p6579
S'DCA'
p6580
tp6581
(lp6582
S'ORD'
p6583
aS'SEA'
p6584
as(S'LGA'
p6585
S'CVG'
p6586
tp6587
(lp6588
S'XNA'
p6589
aS'SFO'
p6590
aS'MKE'
p6591
aS'LAX'
p6592
aS'GRR'
p6593
as(S'JFK'
p6594
S'PBI'
p6595
tp6596
(lp6597
S'FLL'
p6598
as(S'AUS'
p6599
S'SJC'
p6600
tp6601
(lp6602
S'SEA'
p6603
aS'PDX'
p6604
as(S'IAD'
p6605
S'MSP'
p6606
tp6607
(lp6608
S'OMA'
p6609
aS'MCI'
p6610
aS'DSM'
p6611
aS'LAX'
p6612
aS'DEN'
p6613
aS'SJC'
p6614
as(S'CLT'
p6615
S'SFO'
p6616
tp6617
(lp6618
S'SMF'
p6619
aS'MFR'
p6620
aS'LAX'
p6621
aS'EUG'
p6622
aS'PDX'
p6623
as(S'SAN'
p6624
S'PHL'
p6625
tp6626
(lp6627
S'AVP'
p6628
aS'BOS'
p6629
aS'SWF'
p6630
aS'DTW'
p6631
aS'ROC'
p6632
aS'DCA'
p6633
aS'PVD'
p6634
aS'BWI'
p6635
aS'PIT'
p6636
aS'RIC'
p6637
aS'MDT'
p6638
aS'CLE'
p6639
aS'SJU'
p6640
aS'HPN'
p6641
aS'EWR'
p6642
aS'MHT'
p6643
aS'BTV'
p6644
aS'BUF'
p6645
aS'LGA'
p6646
aS'ALB'
p6647
aS'PHF'
p6648
aS'SYR'
p6649
as(S'LGA'
p6650
S'DTW'
p6651
tp6652
(lp6653
S'MKE'
p6654
aS'MLI'
p6655
aS'BHM'
p6656
aS'IAH'
p6657
aS'MSY'
p6658
aS'MEM'
p6659
aS'DFW'
p6660
aS'MYR'
p6661
aS'OMA'
p6662
aS'CAK'
p6663
aS'STL'
p6664
aS'AUS'
p6665
aS'DEN'
p6666
aS'TYS'
p6667
aS'SAT'
p6668
as(S'ORD'
p6669
S'BDL'
p6670
tp6671
(lp6672
S'BOS'
p6673
as(S'LAX'
p6674
S'DFW'
p6675
tp6676
(lp6677
S'MKE'
p6678
aS'FSD'
p6679
aS'CID'
p6680
aS'ATL'
p6681
aS'BOS'
p6682
aS'LIT'
p6683
aS'FLL'
p6684
aS'BMI'
p6685
aS'DCA'
p6686
aS'SPI'
p6687
aS'GGG'
p6688
aS'CLE'
p6689
aS'GRI'
p6690
aS'DAY'
p6691
aS'IAH'
p6692
aS'STL'
p6693
aS'IAD'
p6694
aS'CSG'
p6695
aS'SJT'
p6696
aS'AUS'
p6697
aS'DSM'
p6698
aS'CLT'
p6699
aS'EWR'
p6700
aS'ICT'
p6701
aS'MCO'
p6702
aS'OMA'
p6703
aS'MCI'
p6704
aS'PHL'
p6705
aS'LGA'
p6706
aS'RIC'
p6707
aS'TYR'
p6708
as(S'HOU'
p6709
S'SNA'
p6710
tp6711
(lp6712
S'SFO'
p6713
as(S'PHL'
p6714
S'BOS'
p6715
tp6716
(lp6717
S'ACK'
p6718
aS'MCO'
p6719
aS'ORD'
p6720
as(S'ORD'
p6721
S'MSP'
p6722
tp6723
(lp6724
S'BRD'
p6725
as(S'MCO'
p6726
S'CLT'
p6727
tp6728
(lp6729
S'JFK'
p6730
aS'TRI'
p6731
aS'LGA'
p6732
aS'MSY'
p6733
aS'CMH'
p6734
aS'ATL'
p6735
aS'ILM'
p6736
aS'OAJ'
p6737
aS'CAK'
p6738
aS'GSP'
p6739
aS'FLO'
p6740
aS'CVG'
p6741
aS'DTW'
p6742
aS'GSO'
p6743
aS'ABE'
p6744
aS'FAY'
p6745
aS'AGS'
p6746
aS'ROC'
p6747
aS'DCA'
p6748
aS'PGV'
p6749
aS'PVD'
p6750
aS'IAD'
p6751
aS'CLE'
p6752
aS'BWI'
p6753
aS'BUF'
p6754
aS'DAY'
p6755
aS'MDT'
p6756
aS'RDU'
p6757
aS'BOS'
p6758
aS'EWN'
p6759
aS'STL'
p6760
aS'BDL'
p6761
aS'JAN'
p6762
aS'ORF'
p6763
aS'HPN'
p6764
aS'GPT'
p6765
aS'EWR'
p6766
aS'BNA'
p6767
aS'PHL'
p6768
aS'PIT'
p6769
aS'SBY'
p6770
aS'ALB'
p6771
aS'PHF'
p6772
aS'RIC'
p6773
aS'SYR'
p6774
aS'SDF'
p6775
aS'HTS'
p6776
aS'IND'
p6777
aS'ORD'
p6778
aS'PWM'
p6779
aS'LYH'
p6780
as(S'LAX'
p6781
S'OAK'
p6782
tp6783
(lp6784
S'SFO'
p6785
as(S'PHL'
p6786
S'BNA'
p6787
tp6788
(lp6789
S'MCO'
p6790
aS'MCI'
p6791
aS'TPA'
p6792
aS'CMH'
p6793
aS'JAX'
p6794
aS'AUS'
p6795
aS'LAX'
p6796
aS'FLL'
p6797
aS'MSY'
p6798
aS'LAS'
p6799
aS'SAT'
p6800
as(S'CLE'
p6801
S'DCA'
p6802
tp6803
(lp6804
S'EWR'
p6805
aS'IAH'
p6806
as(S'LAX'
p6807
S'FLL'
p6808
tp6809
(lp6810
S'MCO'
p6811
aS'ATL'
p6812
aS'LGA'
p6813
as(S'LAX'
p6814
S'SAT'
p6815
tp6816
(lp6817
S'MCO'
p6818
aS'DAL'
p6819
aS'HOU'
p6820
aS'TPA'
p6821
as(S'BWI'
p6822
S'MSY'
p6823
tp6824
(lp6825
S'DAL'
p6826
as(S'LGA'
p6827
S'DEN'
p6828
tp6829
(lp6830
S'BUR'
p6831
aS'SJC'
p6832
aS'PHX'
p6833
aS'LAX'
p6834
aS'SLC'
p6835
as(S'BWI'
p6836
S'BNA'
p6837
tp6838
(lp6839
S'TPA'
p6840
as(S'SLC'
p6841
S'ORD'
p6842
tp6843
(lp6844
S'MKE'
p6845
aS'LGA'
p6846
aS'PIT'
p6847
aS'ATL'
p6848
aS'ROC'
p6849
aS'MSN'
p6850
aS'SDF'
p6851
aS'IND'
p6852
aS'DTW'
p6853
aS'RIC'
p6854
as(S'STL'
p6855
S'HOU'
p6856
tp6857
(lp6858
S'ECP'
p6859
as(S'LAX'
p6860
S'SAN'
p6861
tp6862
(lp6863
S'MCO'
p6864
aS'PHX'
p6865
aS'DEN'
p6866
as(S'CLT'
p6867
S'ILM'
p6868
tp6869
(lp6870
S'BOS'
p6871
as(S'RSW'
p6872
S'DTW'
p6873
tp6874
(lp6875
S'LAN'
p6876
aS'MCI'
p6877
aS'ELM'
p6878
aS'BDL'
p6879
aS'BOS'
p6880
aS'MKE'
p6881
aS'SYR'
p6882
aS'PVD'
p6883
aS'IND'
p6884
aS'BUF'
p6885
as(S'ATL'
p6886
S'MDW'
p6887
tp6888
(lp6889
S'BKG'
p6890
aS'DEN'
p6891
as(S'LGA'
p6892
S'TPA'
p6893
tp6894
(lp6895
S'MIA'
p6896
aS'SRQ'
p6897
aS'PBI'
p6898
aS'FLL'
p6899
as(S'CVG'
p6900
S'DFW'
p6901
tp6902
(lp6903
S'PHX'
p6904
aS'SAN'
p6905
aS'SNA'
p6906
aS'ABQ'
p6907
aS'LBB'
p6908
aS'LAX'
p6909
aS'DEN'
p6910
aS'SFO'
p6911
aS'LAS'
p6912
as(S'BWI'
p6913
S'SAT'
p6914
tp6915
(lp6916
S'DAL'
p6917
aS'ELP'
p6918
as(S'BOS'
p6919
S'MCO'
p6920
tp6921
(lp6922
S'PBI'
p6923
aS'FLL'
p6924
aS'TPA'
p6925
as(S'PHX'
p6926
S'MKE'
p6927
tp6928
(lp6929
S'BOS'
p6930
as(S'SFO'
p6931
S'DEN'
p6932
tp6933
(lp6934
S'LIT'
p6935
aS'MKE'
p6936
aS'FSD'
p6937
aS'IAH'
p6938
aS'DCA'
p6939
aS'CAK'
p6940
aS'DAY'
p6941
aS'SLC'
p6942
as(S'SFO'
p6943
S'RNO'
p6944
tp6945
(lp6946
S'DEN'
p6947
as(S'FLL'
p6948
S'LGA'
p6949
tp6950
(lp6951
S'BTV'
p6952
aS'DTW'
p6953
aS'ROC'
p6954
aS'SYR'
p6955
aS'BUF'
p6956
aS'HPN'
p6957
aS'MHT'
p6958
aS'PWM'
p6959
aS'PIT'
p6960
as(S'LGA'
p6961
S'DCA'
p6962
tp6963
(lp6964
S'GSP'
p6965
aS'MYR'
p6966
aS'CRW'
p6967
aS'MSY'
p6968
aS'CMH'
p6969
aS'MIA'
p6970
aS'ATL'
p6971
aS'ILM'
p6972
aS'TPA'
p6973
aS'OAJ'
p6974
aS'MSP'
p6975
aS'CAK'
p6976
aS'FLL'
p6977
aS'DEN'
p6978
aS'CVG'
p6979
aS'AGS'
p6980
aS'GSO'
p6981
aS'FAY'
p6982
aS'SAN'
p6983
aS'DTW'
p6984
aS'ROC'
p6985
aS'HSV'
p6986
aS'CAE'
p6987
aS'BUF'
p6988
aS'SAV'
p6989
aS'RDU'
p6990
aS'CHA'
p6991
aS'IAH'
p6992
aS'JAX'
p6993
aS'IAD'
p6994
aS'JAN'
p6995
aS'ORF'
p6996
aS'DSM'
p6997
aS'CLT'
p6998
aS'BNA'
p6999
aS'TLH'
p7000
aS'PBI'
p7001
aS'MCO'
p7002
aS'OMA'
p7003
aS'BHM'
p7004
aS'MCI'
p7005
aS'MEM'
p7006
aS'PIT'
p7007
aS'PNS'
p7008
aS'DAY'
p7009
aS'SDF'
p7010
aS'CHS'
p7011
aS'IND'
p7012
aS'ORD'
p7013
aS'TYS'
p7014
aS'LAS'
p7015
as(S'SJC'
p7016
S'BUR'
p7017
tp7018
(lp7019
S'LAS'
p7020
as(S'CLT'
p7021
S'DFW'
p7022
tp7023
(lp7024
S'COS'
p7025
aS'GJT'
p7026
aS'XNA'
p7027
aS'DEN'
p7028
aS'ACT'
p7029
aS'SMF'
p7030
aS'MFE'
p7031
aS'FAT'
p7032
aS'LBB'
p7033
aS'SEA'
p7034
aS'LAX'
p7035
aS'ICT'
p7036
aS'ONT'
p7037
aS'SAT'
p7038
aS'IAH'
p7039
aS'PDX'
p7040
aS'ABI'
p7041
aS'ABQ'
p7042
aS'AUS'
p7043
aS'SJC'
p7044
aS'ELP'
p7045
aS'GRK'
p7046
aS'SAN'
p7047
aS'OMA'
p7048
aS'RNO'
p7049
aS'MCI'
p7050
aS'SNA'
p7051
aS'TUS'
p7052
aS'SFO'
p7053
aS'OKC'
p7054
aS'PHX'
p7055
aS'TUL'
p7056
aS'PSP'
p7057
aS'LAW'
p7058
aS'TYR'
p7059
aS'LAS'
p7060
as(S'CVG'
p7061
S'MEM'
p7062
tp7063
(lp7064
S'OKC'
p7065
aS'PHX'
p7066
aS'LAX'
p7067
aS'MSY'
p7068
aS'LAS'
p7069
as(S'MDW'
p7070
S'TPA'
p7071
tp7072
(lp7073
S'PBI'
p7074
aS'FLL'
p7075
as(S'MCI'
p7076
S'PHX'
p7077
tp7078
(lp7079
S'LGB'
p7080
aS'TUS'
p7081
aS'LAS'
p7082
aS'SNA'
p7083
as(S'MKE'
p7084
S'PHX'
p7085
tp7086
(lp7087
S'ABQ'
p7088
aS'ELP'
p7089
as(S'RDU'
p7090
S'DCA'
p7091
tp7092
(lp7093
S'BOS'
p7094
aS'BTV'
p7095
aS'PHL'
p7096
aS'CMH'
p7097
aS'STL'
p7098
aS'BDL'
p7099
aS'ROC'
p7100
aS'ALB'
p7101
aS'LGA'
p7102
aS'SYR'
p7103
aS'BGR'
p7104
aS'BUF'
p7105
aS'PVD'
p7106
aS'IND'
p7107
aS'BNA'
p7108
aS'PWM'
p7109
aS'DTW'
p7110
aS'MHT'
p7111
aS'PIT'
p7112
as(S'LGA'
p7113
S'IAH'
p7114
tp7115
(lp7116
S'COS'
p7117
aS'TUS'
p7118
aS'MSY'
p7119
aS'AEX'
p7120
aS'LIT'
p7121
aS'DEN'
p7122
aS'SMF'
p7123
aS'MFE'
p7124
aS'ICT'
p7125
aS'DAL'
p7126
aS'LFT'
p7127
aS'SEA'
p7128
aS'TUL'
p7129
aS'SLC'
p7130
aS'ONT'
p7131
aS'SAT'
p7132
aS'CLL'
p7133
aS'PDX'
p7134
aS'DFW'
p7135
aS'JAN'
p7136
aS'ABQ'
p7137
aS'AUS'
p7138
aS'MLU'
p7139
aS'GPT'
p7140
aS'SJC'
p7141
aS'ELP'
p7142
aS'GRK'
p7143
aS'SAN'
p7144
aS'RNO'
p7145
aS'LRD'
p7146
aS'BTR'
p7147
aS'SNA'
p7148
aS'SFO'
p7149
aS'OKC'
p7150
aS'PHX'
p7151
aS'LAX'
p7152
aS'MOB'
p7153
aS'LAS'
p7154
as(S'SEA'
p7155
S'ORD'
p7156
tp7157
(lp7158
S'MKE'
p7159
aS'CID'
p7160
aS'BOS'
p7161
aS'CAK'
p7162
aS'FLL'
p7163
aS'PAH'
p7164
aS'BWI'
p7165
aS'BUF'
p7166
aS'DAY'
p7167
aS'TPA'
p7168
aS'STL'
p7169
aS'AUS'
p7170
aS'DSM'
p7171
aS'HPN'
p7172
aS'CLT'
p7173
aS'BNA'
p7174
aS'MCO'
p7175
aS'LIT'
p7176
aS'PHL'
p7177
aS'LGA'
p7178
aS'RSW'
p7179
aS'TYS'
p7180
as(S'SEA'
p7181
S'IAH'
p7182
tp7183
(lp7184
S'ATL'
p7185
aS'BOS'
p7186
aS'LIT'
p7187
aS'FLL'
p7188
aS'DAL'
p7189
aS'BWI'
p7190
aS'PIT'
p7191
aS'SAT'
p7192
aS'TPA'
p7193
aS'STL'
p7194
aS'DFW'
p7195
aS'AUS'
p7196
aS'CHS'
p7197
aS'CLT'
p7198
aS'BNA'
p7199
aS'PBI'
p7200
aS'GRK'
p7201
aS'MCO'
p7202
aS'PHL'
p7203
aS'MEM'
p7204
aS'LGA'
p7205
aS'OKC'
p7206
aS'IND'
p7207
aS'TYS'
p7208
as(S'LGA'
p7209
S'ORD'
p7210
tp7211
(lp7212
S'MCO'
p7213
aS'MKE'
p7214
aS'TUS'
p7215
aS'GRR'
p7216
aS'MSY'
p7217
aS'TPA'
p7218
aS'MEM'
p7219
aS'PIA'
p7220
aS'BMI'
p7221
aS'COS'
p7222
aS'MLI'
p7223
aS'FNT'
p7224
aS'STL'
p7225
aS'AUS'
p7226
aS'PHX'
p7227
aS'HSV'
p7228
aS'SMF'
p7229
aS'SJC'
p7230
aS'TVC'
p7231
aS'ICT'
p7232
as(S'LAX'
p7233
S'BOS'
p7234
tp7235
(lp7236
S'IAD'
p7237
aS'LGA'
p7238
aS'DCA'
p7239
aS'EWR'
p7240
aS'BWI'
p7241
aS'BUF'
p7242
as(S'ORD'
p7243
S'ATL'
p7244
tp7245
(lp7246
S'MLB'
p7247
aS'GSP'
p7248
aS'FAY'
p7249
aS'ILM'
p7250
aS'EWN'
p7251
aS'DAB'
p7252
aS'MYR'
p7253
aS'OAJ'
p7254
aS'DCA'
p7255
aS'AVL'
p7256
aS'FLL'
p7257
aS'MCO'
p7258
aS'BNA'
p7259
aS'AGS'
p7260
as(S'DEN'
p7261
S'BOS'
p7262
tp7263
(lp7264
S'JFK'
p7265
aS'BWI'
p7266
aS'DCA'
p7267
aS'BUF'
p7268
aS'EWR'
p7269
as(S'DFW'
p7270
S'MCO'
p7271
tp7272
(lp7273
S'DTW'
p7274
aS'FLL'
p7275
as(S'PHX'
p7276
S'DFW'
p7277
tp7278
(lp7279
S'RDU'
p7280
aS'MKE'
p7281
aS'SPS'
p7282
aS'MSY'
p7283
aS'CMH'
p7284
aS'AEX'
p7285
aS'ATL'
p7286
aS'BOS'
p7287
aS'MSP'
p7288
aS'LIT'
p7289
aS'MSN'
p7290
aS'FLL'
p7291
aS'ACT'
p7292
aS'DTW'
p7293
aS'EVV'
p7294
aS'TXK'
p7295
aS'TPA'
p7296
aS'VPS'
p7297
aS'PIA'
p7298
aS'CID'
p7299
aS'OKC'
p7300
aS'LGA'
p7301
aS'LFT'
p7302
aS'HSV'
p7303
aS'CLE'
p7304
aS'GPT'
p7305
aS'BWI'
p7306
aS'PIT'
p7307
aS'RIC'
p7308
aS'SAT'
p7309
aS'CLL'
p7310
aS'GRR'
p7311
aS'IAH'
p7312
aS'JAX'
p7313
aS'STL'
p7314
aS'ABI'
p7315
aS'GCK'
p7316
aS'MLI'
p7317
aS'IND'
p7318
aS'AUS'
p7319
aS'DSM'
p7320
aS'MLU'
p7321
aS'CLT'
p7322
aS'EWR'
p7323
aS'BNA'
p7324
aS'PBI'
p7325
aS'GRK'
p7326
aS'ICT'
p7327
aS'MCO'
p7328
aS'OMA'
p7329
aS'LAW'
p7330
aS'BHM'
p7331
aS'MCI'
p7332
aS'PHL'
p7333
aS'PNS'
p7334
aS'BTR'
p7335
aS'DAY'
p7336
aS'SDF'
p7337
aS'TUL'
p7338
aS'ORF'
p7339
aS'MOB'
p7340
aS'ORD'
p7341
aS'RSW'
p7342
aS'TYR'
p7343
aS'TYS'
p7344
as(S'JFK'
p7345
S'MIA'
p7346
tp7347
(lp7348
S'MCO'
p7349
aS'TPA'
p7350
as(S'SAN'
p7351
S'DTW'
p7352
tp7353
(lp7354
S'MKE'
p7355
aS'CMH'
p7356
aS'BOS'
p7357
aS'FWA'
p7358
aS'CAK'
p7359
aS'MSN'
p7360
aS'CVG'
p7361
aS'ROC'
p7362
aS'DCA'
p7363
aS'PVD'
p7364
aS'BWI'
p7365
aS'PIT'
p7366
aS'DAY'
p7367
aS'GRR'
p7368
aS'ELM'
p7369
aS'BDL'
p7370
aS'IND'
p7371
aS'CLT'
p7372
aS'BNA'
p7373
aS'MCO'
p7374
aS'PHL'
p7375
aS'BUF'
p7376
aS'LGA'
p7377
aS'RIC'
p7378
aS'SDF'
p7379
aS'ORF'
p7380
aS'ORD'
p7381
aS'SBN'
p7382
as(S'MCI'
p7383
S'SAN'
p7384
tp7385
(lp7386
S'SMF'
p7387
aS'OAK'
p7388
aS'SFO'
p7389
as(S'CVG'
p7390
S'PHL'
p7391
tp7392
(lp7393
S'MCO'
p7394
aS'BOS'
p7395
aS'BDL'
p7396
aS'ISP'
p7397
aS'LGA'
p7398
aS'PVD'
p7399
aS'ORF'
p7400
aS'BWI'
p7401
aS'RIC'
p7402
aS'MDT'
p7403
as(S'DTW'
p7404
S'IAH'
p7405
tp7406
(lp7407
S'COS'
p7408
aS'MSY'
p7409
aS'SNA'
p7410
aS'AUS'
p7411
aS'PHX'
p7412
aS'LAX'
p7413
aS'SEA'
p7414
aS'SJC'
p7415
aS'SAT'
p7416
aS'ONT'
p7417
aS'LAS'
p7418
as(S'BOS'
p7419
S'DFW'
p7420
tp7421
(lp7422
S'SAN'
p7423
aS'MSY'
p7424
aS'BTR'
p7425
aS'ABI'
p7426
aS'SJT'
p7427
aS'LFT'
p7428
aS'AUS'
p7429
aS'PHX'
p7430
aS'IAH'
p7431
aS'DEN'
p7432
aS'ACT'
p7433
aS'MCI'
p7434
aS'GRK'
p7435
aS'TYR'
p7436
aS'ICT'
p7437
as(S'LAX'
p7438
S'CVG'
p7439
tp7440
(lp7441
S'RDU'
p7442
aS'MCO'
p7443
aS'MKE'
p7444
aS'LGA'
p7445
aS'PHL'
p7446
aS'BDL'
p7447
aS'BOS'
p7448
aS'DCA'
p7449
aS'CLT'
p7450
aS'BWI'
p7451
aS'RIC'
p7452
as(S'MSP'
p7453
S'MKE'
p7454
tp7455
(lp7456
S'STL'
p7457
aS'BWI'
p7458
as(S'DCA'
p7459
S'EWR'
p7460
tp7461
(lp7462
S'MHT'
p7463
aS'BOS'
p7464
aS'PBI'
p7465
aS'FLL'
p7466
as(S'EWR'
p7467
S'TPA'
p7468
tp7469
(lp7470
S'RSW'
p7471
aS'PBI'
p7472
aS'FLL'
p7473
as(S'MIA'
p7474
S'DFW'
p7475
tp7476
(lp7477
S'OMA'
p7478
aS'MCI'
p7479
aS'ABQ'
p7480
aS'STL'
p7481
aS'COS'
p7482
aS'OKC'
p7483
aS'MKE'
p7484
aS'DSM'
p7485
aS'AUS'
p7486
aS'PHX'
p7487
aS'TUL'
p7488
aS'DEN'
p7489
aS'ELP'
p7490
aS'GRK'
p7491
aS'ICT'
p7492
as(S'DCA'
p7493
S'ATL'
p7494
tp7495
(lp7496
S'GSP'
p7497
aS'MKE'
p7498
aS'MIA'
p7499
aS'LIT'
p7500
aS'MSN'
p7501
aS'FLL'
p7502
aS'TPA'
p7503
aS'DAB'
p7504
aS'MYR'
p7505
aS'MDW'
p7506
aS'MLB'
p7507
aS'CHA'
p7508
aS'JAX'
p7509
aS'SJU'
p7510
aS'JAN'
p7511
aS'SRQ'
p7512
aS'GPT'
p7513
aS'PBI'
p7514
aS'MCO'
p7515
aS'OMA'
p7516
aS'BHM'
p7517
aS'MCI'
p7518
aS'BTR'
p7519
aS'DSM'
p7520
aS'RSW'
p7521
aS'HOU'
p7522
as(S'SFO'
p7523
S'SLC'
p7524
tp7525
(lp7526
S'MSO'
p7527
aS'DEN'
p7528
aS'BIL'
p7529
aS'SGU'
p7530
aS'DCA'
p7531
aS'FCA'
p7532
aS'GEG'
p7533
aS'RAP'
p7534
aS'IAH'
p7535
aS'GTF'
p7536
aS'STL'
p7537
aS'DFW'
p7538
aS'AUS'
p7539
aS'CLT'
p7540
aS'EWR'
p7541
aS'BNA'
p7542
aS'MCO'
p7543
aS'OMA'
p7544
aS'MCI'
p7545
aS'PHL'
p7546
aS'MEM'
p7547
aS'PSC'
p7548
aS'HLN'
p7549
aS'PHX'
p7550
aS'IND'
p7551
aS'ORD'
p7552
as(S'ORD'
p7553
S'MEM'
p7554
tp7555
(lp7556
S'MCO'
p7557
aS'JAN'
p7558
aS'IAH'
p7559
aS'MSY'
p7560
aS'BTR'
p7561
aS'DFW'
p7562
aS'SHV'
p7563
aS'AUS'
p7564
aS'LAX'
p7565
aS'FLL'
p7566
aS'BNA'
p7567
aS'LAS'
p7568
aS'SAT'
p7569
as(S'MSP'
p7570
S'PHL'
p7571
tp7572
(lp7573
S'LGA'
p7574
aS'CMH'
p7575
aS'ALB'
p7576
aS'ATL'
p7577
aS'BOS'
p7578
aS'SWF'
p7579
aS'BGR'
p7580
aS'FLL'
p7581
aS'CVG'
p7582
aS'GSO'
p7583
aS'TPA'
p7584
aS'SCE'
p7585
aS'ROC'
p7586
aS'PVD'
p7587
aS'BWI'
p7588
aS'BUF'
p7589
aS'RIC'
p7590
aS'MDT'
p7591
aS'RDU'
p7592
aS'ABE'
p7593
aS'JAX'
p7594
aS'BDL'
p7595
aS'SJU'
p7596
aS'HPN'
p7597
aS'EWR'
p7598
aS'MHT'
p7599
aS'PWM'
p7600
aS'MCO'
p7601
aS'BTV'
p7602
aS'ITH'
p7603
aS'HVN'
p7604
aS'PIT'
p7605
aS'SBY'
p7606
aS'AVP'
p7607
aS'PHF'
p7608
aS'DAY'
p7609
aS'SYR'
p7610
aS'ORF'
p7611
aS'RSW'
p7612
as(S'STL'
p7613
S'PHL'
p7614
tp7615
(lp7616
S'BWI'
p7617
as(S'CHS'
p7618
S'ATL'
p7619
tp7620
(lp7621
S'PVD'
p7622
aS'MKE'
p7623
aS'ROC'
p7624
aS'MSY'
p7625
aS'CID'
p7626
aS'MIA'
p7627
aS'BOS'
p7628
aS'FSM'
p7629
aS'MSP'
p7630
aS'CAK'
p7631
aS'LEX'
p7632
aS'DTW'
p7633
aS'FLL'
p7634
aS'DEN'
p7635
aS'EWR'
p7636
aS'CVG'
p7637
aS'CMH'
p7638
aS'BNA'
p7639
aS'XNA'
p7640
aS'DSM'
p7641
aS'SHV'
p7642
aS'DAL'
p7643
aS'PIA'
p7644
aS'BMI'
p7645
aS'SDF'
p7646
aS'DCA'
p7647
aS'LFT'
p7648
aS'PHX'
p7649
aS'HSV'
p7650
aS'DAY'
p7651
aS'IAD'
p7652
aS'CLE'
p7653
aS'BWI'
p7654
aS'RSW'
p7655
aS'PIT'
p7656
aS'RIC'
p7657
aS'SAT'
p7658
aS'MLB'
p7659
aS'CHA'
p7660
aS'IAH'
p7661
aS'TPA'
p7662
aS'STL'
p7663
aS'BDL'
p7664
aS'DFW'
p7665
aS'MLI'
p7666
aS'SJU'
p7667
aS'IND'
p7668
aS'ABQ'
p7669
aS'HOU'
p7670
aS'HPN'
p7671
aS'EYW'
p7672
aS'GPT'
p7673
aS'SJC'
p7674
aS'MHT'
p7675
aS'PBI'
p7676
aS'MCO'
p7677
aS'LIT'
p7678
aS'OMA'
p7679
aS'PWM'
p7680
aS'BHM'
p7681
aS'PHL'
p7682
aS'MCI'
p7683
aS'BTR'
p7684
aS'MEM'
p7685
aS'BUF'
p7686
aS'PNS'
p7687
aS'LGA'
p7688
aS'ALB'
p7689
aS'AUS'
p7690
aS'MGM'
p7691
aS'MDW'
p7692
aS'SYR'
p7693
aS'OKC'
p7694
aS'SRQ'
p7695
aS'TUL'
p7696
aS'ORF'
p7697
aS'MOB'
p7698
aS'ORD'
p7699
aS'TYS'
p7700
aS'SBN'
p7701
aS'LAS'
p7702
as(S'MSY'
p7703
S'ORD'
p7704
tp7705
(lp7706
S'MKE'
p7707
aS'BOS'
p7708
aS'GRR'
p7709
aS'MCI'
p7710
aS'PHL'
p7711
aS'CLE'
p7712
aS'LGA'
p7713
aS'MLI'
p7714
aS'MSP'
p7715
aS'MSN'
p7716
aS'DSM'
p7717
aS'CID'
p7718
aS'CMH'
p7719
aS'IND'
p7720
aS'EWR'
p7721
aS'PIT'
p7722
as(S'MEM'
p7723
S'BNA'
p7724
tp7725
(lp7726
S'ATL'
p7727
as(S'SEA'
p7728
S'ONT'
p7729
tp7730
(lp7731
S'SNA'
p7732
as(S'DEN'
p7733
S'LAX'
p7734
tp7735
(lp7736
S'CLD'
p7737
as(S'DEN'
p7738
S'CLT'
p7739
tp7740
(lp7741
S'JFK'
p7742
aS'RDU'
p7743
aS'LGA'
p7744
aS'GNV'
p7745
aS'MSY'
p7746
aS'GSP'
p7747
aS'MIA'
p7748
aS'ATL'
p7749
aS'BOS'
p7750
aS'OAJ'
p7751
aS'CAK'
p7752
aS'FLL'
p7753
aS'FLO'
p7754
aS'CMH'
p7755
aS'CVG'
p7756
aS'AGS'
p7757
aS'GSO'
p7758
aS'ORF'
p7759
aS'FAY'
p7760
aS'TPA'
p7761
aS'DAB'
p7762
aS'DTW'
p7763
aS'SAV'
p7764
aS'MYR'
p7765
aS'DCA'
p7766
aS'PGV'
p7767
aS'CAE'
p7768
aS'BDL'
p7769
aS'BWI'
p7770
aS'LYH'
p7771
aS'DAY'
p7772
aS'MDT'
p7773
aS'PVD'
p7774
aS'TRI'
p7775
aS'CHA'
p7776
aS'ILM'
p7777
aS'EWN'
p7778
aS'JAX'
p7779
aS'IAD'
p7780
aS'CHO'
p7781
aS'LEX'
p7782
aS'CHS'
p7783
aS'EWR'
p7784
aS'BNA'
p7785
aS'SJU'
p7786
aS'PBI'
p7787
aS'PWM'
p7788
aS'MCO'
p7789
aS'RSW'
p7790
aS'BHM'
p7791
aS'VPS'
p7792
aS'PHL'
p7793
aS'BUF'
p7794
aS'PNS'
p7795
aS'SBY'
p7796
aS'ALB'
p7797
aS'PHF'
p7798
aS'CLE'
p7799
aS'RIC'
p7800
aS'AVL'
p7801
aS'SDF'
p7802
aS'SRQ'
p7803
aS'HTS'
p7804
aS'ROA'
p7805
aS'IND'
p7806
aS'HHH'
p7807
aS'PIT'
p7808
aS'TYS'
p7809
as(S'MSP'
p7810
S'OMA'
p7811
tp7812
(lp7813
S'MCO'
p7814
as(S'TPA'
p7815
S'BOS'
p7816
tp7817
(lp7818
S'BUF'
p7819
as(S'HOU'
p7820
S'BNA'
p7821
tp7822
(lp7823
S'GSP'
p7824
aS'LGA'
p7825
aS'CMH'
p7826
aS'CLE'
p7827
aS'BOS'
p7828
aS'PHL'
p7829
as(S'MIA'
p7830
S'JFK'
p7831
tp7832
(lp7833
S'LGA'
p7834
as(S'LGA'
p7835
S'ATL'
p7836
tp7837
(lp7838
S'GSP'
p7839
aS'MKE'
p7840
aS'GNV'
p7841
aS'CRW'
p7842
aS'MSY'
p7843
aS'CMH'
p7844
aS'MIA'
p7845
aS'OAJ'
p7846
aS'XNA'
p7847
aS'FLL'
p7848
aS'DEN'
p7849
aS'AGS'
p7850
aS'CAE'
p7851
aS'TPA'
p7852
aS'DAB'
p7853
aS'MYR'
p7854
aS'HSV'
p7855
aS'DAY'
p7856
aS'SAT'
p7857
aS'RDU'
p7858
aS'CHA'
p7859
aS'JAX'
p7860
aS'STL'
p7861
aS'SJU'
p7862
aS'AUS'
p7863
aS'SRQ'
p7864
aS'CLT'
p7865
aS'ABY'
p7866
aS'PBI'
p7867
aS'MCO'
p7868
aS'MLB'
p7869
aS'MEM'
p7870
aS'MDW'
p7871
aS'AVL'
p7872
aS'CHS'
p7873
aS'IND'
p7874
aS'RSW'
p7875
aS'HOU'
p7876
as(S'PDX'
p7877
S'SJC'
p7878
tp7879
(lp7880
S'SAN'
p7881
aS'SNA'
p7882
aS'BUR'
p7883
aS'LAX'
p7884
aS'ONT'
p7885
aS'LAS'
p7886
as(S'BNA'
p7887
S'MEM'
p7888
tp7889
(lp7890
S'ORD'
p7891
aS'MCI'
p7892
as(S'LAS'
p7893
S'DEN'
p7894
tp7895
(lp7896
S'ABQ'
p7897
as(S'CLT'
p7898
S'DEN'
p7899
tp7900
(lp7901
S'COS'
p7902
aS'PDX'
p7903
aS'PSC'
p7904
aS'EUG'
p7905
aS'SFO'
p7906
aS'PHX'
p7907
aS'LAX'
p7908
aS'SEA'
p7909
aS'SJC'
p7910
aS'BZN'
p7911
aS'JAC'
p7912
aS'LAS'
p7913
as(S'ATL'
p7914
S'MCO'
p7915
tp7916
(lp7917
S'MIA'
p7918
aS'FNT'
p7919
aS'PBI'
p7920
aS'FLL'
p7921
as(S'JAX'
p7922
S'ATL'
p7923
tp7924
(lp7925
S'BNA'
p7926
aS'MHT'
p7927
as(S'SNA'
p7928
S'MDW'
p7929
tp7930
(lp7931
S'CLE'
p7932
aS'DTW'
p7933
as(S'SLC'
p7934
S'ATL'
p7935
tp7936
(lp7937
S'RDU'
p7938
aS'MYR'
p7939
aS'GSP'
p7940
aS'MIA'
p7941
aS'ILM'
p7942
aS'RIC'
p7943
aS'CAK'
p7944
aS'FLL'
p7945
aS'CMH'
p7946
aS'GSO'
p7947
aS'DAB'
p7948
aS'ROC'
p7949
aS'DCA'
p7950
aS'PVD'
p7951
aS'ECP'
p7952
aS'BWI'
p7953
aS'PIT'
p7954
aS'SAV'
p7955
aS'MLB'
p7956
aS'TPA'
p7957
aS'BDL'
p7958
aS'CHS'
p7959
aS'EYW'
p7960
aS'CLT'
p7961
aS'EWR'
p7962
aS'MHT'
p7963
aS'MCO'
p7964
aS'LIT'
p7965
aS'PWM'
p7966
aS'VPS'
p7967
aS'PNS'
p7968
aS'ALB'
p7969
aS'PHF'
p7970
aS'DAY'
p7971
aS'AVL'
p7972
aS'SYR'
p7973
aS'SDF'
p7974
aS'ORF'
p7975
aS'RSW'
p7976
as(S'EWR'
p7977
S'ATL'
p7978
tp7979
(lp7980
S'GSP'
p7981
aS'GNV'
p7982
aS'MSY'
p7983
aS'MIA'
p7984
aS'AEX'
p7985
aS'ILM'
p7986
aS'FLL'
p7987
aS'AGS'
p7988
aS'CAE'
p7989
aS'FAY'
p7990
aS'TPA'
p7991
aS'DAB'
p7992
aS'MYR'
p7993
aS'HSV'
p7994
aS'TUL'
p7995
aS'TYS'
p7996
aS'SAV'
p7997
aS'SAT'
p7998
aS'RDU'
p7999
aS'IAH'
p8000
aS'JAX'
p8001
aS'STL'
p8002
aS'DFW'
p8003
aS'SRQ'
p8004
aS'JAN'
p8005
aS'ABQ'
p8006
aS'CHS'
p8007
aS'HOU'
p8008
aS'EYW'
p8009
aS'MLU'
p8010
aS'GPT'
p8011
aS'BNA'
p8012
aS'TLH'
p8013
aS'PBI'
p8014
aS'MCO'
p8015
aS'STT'
p8016
aS'BHM'
p8017
aS'PNS'
p8018
aS'TUS'
p8019
aS'AUS'
p8020
aS'MGM'
p8021
aS'MLB'
p8022
aS'SFO'
p8023
aS'SDF'
p8024
aS'PHX'
p8025
aS'LAX'
p8026
aS'LEX'
p8027
aS'RSW'
p8028
aS'LAS'
p8029
as(S'MDW'
p8030
S'ABQ'
p8031
tp8032
(lp8033
S'LAS'
p8034
as(S'DFW'
p8035
S'LGA'
p8036
tp8037
(lp8038
S'JFK'
p8039
aS'ROC'
p8040
aS'BOS'
p8041
aS'SYR'
p8042
aS'BGR'
p8043
aS'BTV'
p8044
aS'MHT'
p8045
aS'PWM'
p8046
aS'BUF'
p8047
as(S'MCO'
p8048
S'ORD'
p8049
tp8050
(lp8051
S'OMA'
p8052
aS'GRR'
p8053
aS'LAN'
p8054
aS'SYR'
p8055
aS'STL'
p8056
aS'COS'
p8057
aS'MLI'
p8058
aS'MKE'
p8059
aS'MSP'
p8060
aS'MSN'
p8061
aS'DSM'
p8062
aS'IND'
p8063
aS'CMH'
p8064
aS'DAY'
p8065
aS'LAS'
p8066
as(S'MSN'
p8067
S'DTW'
p8068
tp8069
(lp8070
S'GSP'
p8071
aS'ROC'
p8072
aS'MSY'
p8073
aS'CMH'
p8074
aS'MIA'
p8075
aS'AVP'
p8076
aS'ATL'
p8077
aS'CAK'
p8078
aS'FLL'
p8079
aS'CVG'
p8080
aS'BNA'
p8081
aS'GSO'
p8082
aS'ABE'
p8083
aS'SAN'
p8084
aS'SFO'
p8085
aS'LAS'
p8086
aS'DCA'
p8087
aS'PVD'
p8088
aS'SEA'
p8089
aS'BWI'
p8090
aS'PIT'
p8091
aS'RIC'
p8092
aS'MDT'
p8093
aS'SAT'
p8094
aS'RDU'
p8095
aS'GRR'
p8096
aS'IAH'
p8097
aS'TPA'
p8098
aS'ELM'
p8099
aS'IAD'
p8100
aS'ORF'
p8101
aS'AUS'
p8102
aS'HPN'
p8103
aS'CLT'
p8104
aS'EWR'
p8105
aS'MHT'
p8106
aS'IND'
p8107
aS'PWM'
p8108
aS'MCO'
p8109
aS'LAN'
p8110
aS'BTV'
p8111
aS'BHM'
p8112
aS'ITH'
p8113
aS'PHL'
p8114
aS'BUF'
p8115
aS'LGA'
p8116
aS'ALB'
p8117
aS'DAY'
p8118
aS'SYR'
p8119
aS'SDF'
p8120
aS'PHX'
p8121
aS'LAX'
p8122
aS'LEX'
p8123
aS'RSW'
p8124
aS'TYS'
p8125
as(S'IAH'
p8126
S'EWR'
p8127
tp8128
(lp8129
S'ROC'
p8130
aS'AVP'
p8131
aS'BDL'
p8132
aS'BOS'
p8133
aS'ALB'
p8134
aS'LGA'
p8135
aS'SYR'
p8136
aS'BTV'
p8137
aS'PVD'
p8138
aS'MHT'
p8139
aS'PWM'
p8140
aS'BUF'
p8141
as(S'EWR'
p8142
S'SEA'
p8143
tp8144
(lp8145
S'GEG'
p8146
as(S'DEN'
p8147
S'SFO'
p8148
tp8149
(lp8150
S'SBP'
p8151
aS'SBA'
p8152
aS'SAN'
p8153
aS'FAT'
p8154
as(S'DEN'
p8155
S'IAH'
p8156
tp8157
(lp8158
S'RDU'
p8159
aS'MCO'
p8160
aS'TPA'
p8161
aS'AEX'
p8162
aS'LGA'
p8163
aS'AUS'
p8164
aS'FLL'
p8165
aS'GPT'
p8166
aS'RSW'
p8167
aS'SAV'
p8168
as(S'EWR'
p8169
S'MSY'
p8170
tp8171
(lp8172
S'HOU'
p8173
aS'IAH'
p8174
as(S'TPA'
p8175
S'EWR'
p8176
tp8177
(lp8178
S'BOS'
p8179
aS'BTV'
p8180
aS'GRR'
p8181
aS'AVP'
p8182
aS'ITH'
p8183
aS'BDL'
p8184
aS'ROC'
p8185
aS'ALB'
p8186
aS'SYR'
p8187
aS'PVD'
p8188
aS'IND'
p8189
aS'MHT'
p8190
aS'PWM'
p8191
aS'BUF'
p8192
aS'PIT'
p8193
as(S'DFW'
p8194
S'SMF'
p8195
tp8196
(lp8197
S'SFO'
p8198
as(S'MCI'
p8199
S'LAX'
p8200
tp8201
(lp8202
S'SFO'
p8203
aS'OAK'
p8204
aS'SAN'
p8205
aS'LAS'
p8206
as(S'FLL'
p8207
S'DFW'
p8208
tp8209
(lp8210
S'AUS'
p8211
aS'MCI'
p8212
aS'MSY'
p8213
aS'GRK'
p8214
as(S'ABQ'
p8215
S'BWI'
p8216
tp8217
(lp8218
S'BOS'
p8219
aS'ISP'
p8220
aS'FLL'
p8221
aS'ORF'
p8222
aS'PWM'
p8223
aS'BUF'
p8224
as(S'SLC'
p8225
S'EWR'
p8226
tp8227
(lp8228
S'JFK'
p8229
as(S'DFW'
p8230
S'IAD'
p8231
tp8232
(lp8233
S'BOS'
p8234
aS'ROC'
p8235
aS'SCE'
p8236
aS'BDL'
p8237
aS'LGA'
p8238
aS'ALB'
p8239
aS'BGM'
p8240
aS'CHO'
p8241
aS'SYR'
p8242
aS'BUF'
p8243
aS'SHD'
p8244
aS'BWI'
p8245
aS'ORF'
p8246
aS'EWR'
p8247
aS'DCA'
p8248
aS'PIT'
p8249
aS'RIC'
p8250
aS'MDT'
p8251
as(S'DFW'
p8252
S'SLC'
p8253
tp8254
(lp8255
S'LAX'
p8256
aS'RNO'
p8257
aS'SAN'
p8258
aS'SNA'
p8259
aS'BUR'
p8260
aS'OAK'
p8261
aS'DEN'
p8262
aS'SFO'
p8263
aS'PHX'
p8264
aS'GEG'
p8265
aS'LGB'
p8266
aS'SEA'
p8267
aS'SMF'
p8268
aS'BTM'
p8269
aS'SJC'
p8270
aS'ONT'
p8271
aS'LAS'
p8272
as(S'ATL'
p8273
S'DAL'
p8274
tp8275
(lp8276
S'DFW'
p8277
as(S'SEA'
p8278
S'MKE'
p8279
tp8280
(lp8281
S'MCO'
p8282
aS'LGA'
p8283
as(S'EWR'
p8284
S'SFO'
p8285
tp8286
(lp8287
S'SBP'
p8288
aS'RNO'
p8289
aS'SAN'
p8290
aS'SNA'
p8291
aS'BUR'
p8292
aS'EUG'
p8293
aS'PDX'
p8294
aS'MRY'
p8295
aS'FAT'
p8296
aS'BOI'
p8297
aS'MFR'
p8298
aS'SBA'
p8299
aS'ACV'
p8300
aS'SEA'
p8301
aS'RDM'
p8302
aS'SMF'
p8303
aS'PSP'
p8304
aS'ONT'
p8305
aS'LAS'
p8306
as(S'CLT'
p8307
S'TPA'
p8308
tp8309
(lp8310
S'PBI'
p8311
aS'FLL'
p8312
as(S'MCI'
p8313
S'SEA'
p8314
tp8315
(lp8316
S'PDX'
p8317
as(S'MSP'
p8318
S'MCO'
p8319
tp8320
(lp8321
S'FLL'
p8322
as(S'DTW'
p8323
S'DEN'
p8324
tp8325
(lp8326
S'LAX'
p8327
aS'IAH'
p8328
aS'LAS'
p8329
as(S'JFK'
p8330
S'SFO'
p8331
tp8332
(lp8333
S'RNO'
p8334
aS'MRY'
p8335
aS'PDX'
p8336
aS'BUR'
p8337
aS'EUG'
p8338
aS'SNA'
p8339
aS'SBA'
p8340
aS'SEA'
p8341
aS'SJC'
p8342
aS'SMF'
p8343
aS'PSP'
p8344
aS'LAS'
p8345
aS'ONT'
p8346
aS'SAN'
p8347
as(S'PHX'
p8348
S'DCA'
p8349
tp8350
(lp8351
S'LGA'
p8352
as(S'PHL'
p8353
S'SAN'
p8354
tp8355
(lp8356
S'SFO'
p8357
aS'LAX'
p8358
as(S'ATL'
p8359
S'BWI'
p8360
tp8361
(lp8362
S'FNT'
p8363
aS'BUF'
p8364
aS'LGA'
p8365
as(S'ATL'
p8366
S'JFK'
p8367
tp8368
(lp8369
S'LGA'
p8370
as(S'ATL'
p8371
S'SEA'
p8372
tp8373
(lp8374
S'GEG'
p8375
aS'PDX'
p8376
as(S'DTW'
p8377
S'BWI'
p8378
tp8379
(lp8380
S'LGA'
p8381
as(S'PHL'
p8382
S'LAX'
p8383
tp8384
(lp8385
S'SFO'
p8386
aS'SJC'
p8387
as(S'DEN'
p8388
S'CVG'
p8389
tp8390
(lp8391
S'JFK'
p8392
aS'CLT'
p8393
aS'BOS'
p8394
aS'RDU'
p8395
aS'MCO'
p8396
as(S'ATL'
p8397
S'LGA'
p8398
tp8399
(lp8400
S'HPN'
p8401
as(S'SAN'
p8402
S'BOS'
p8403
tp8404
(lp8405
S'EWR'
p8406
aS'DCA'
p8407
as(S'LGA'
p8408
S'IAD'
p8409
tp8410
(lp8411
S'RDU'
p8412
aS'MCO'
p8413
aS'CRW'
p8414
aS'MSY'
p8415
aS'ATL'
p8416
aS'TPA'
p8417
aS'ABQ'
p8418
aS'AUS'
p8419
aS'CHS'
p8420
aS'HSV'
p8421
aS'JAX'
p8422
aS'DEN'
p8423
aS'ORF'
p8424
aS'SAV'
p8425
aS'CAE'
p8426
aS'TYS'
p8427
as(S'MSY'
p8428
S'MCO'
p8429
tp8430
(lp8431
S'PHL'
p8432
as(S'IAD'
p8433
S'DTW'
p8434
tp8435
(lp8436
S'OMA'
p8437
aS'MCI'
p8438
aS'LAN'
p8439
aS'MKE'
p8440
aS'MSN'
p8441
aS'DSM'
p8442
aS'ORD'
p8443
as(S'PHX'
p8444
S'MSP'
p8445
tp8446
(lp8447
S'MKE'
p8448
aS'FSD'
p8449
aS'CMH'
p8450
aS'BOS'
p8451
aS'MSN'
p8452
aS'ROC'
p8453
aS'PIT'
p8454
aS'DAY'
p8455
aS'RDU'
p8456
aS'GRR'
p8457
aS'STL'
p8458
aS'ABR'
p8459
aS'DSM'
p8460
aS'AZO'
p8461
aS'CLT'
p8462
aS'EWR'
p8463
aS'BNA'
p8464
aS'OMA'
p8465
aS'MCI'
p8466
aS'PHL'
p8467
aS'BUF'
p8468
aS'LGA'
p8469
aS'MDW'
p8470
aS'SDF'
p8471
aS'IND'
p8472
as(S'OKC'
p8473
S'MDW'
p8474
tp8475
(lp8476
S'MCO'
p8477
as(S'IAH'
p8478
S'ORD'
p8479
tp8480
(lp8481
S'FNT'
p8482
aS'FSD'
p8483
aS'CMH'
p8484
aS'BOS'
p8485
aS'MSP'
p8486
aS'CAK'
p8487
aS'MSN'
p8488
aS'DTW'
p8489
aS'PIA'
p8490
aS'ROC'
p8491
aS'PVD'
p8492
aS'BDL'
p8493
aS'BUF'
p8494
aS'DAY'
p8495
aS'CLE'
p8496
aS'MLI'
p8497
aS'HPN'
p8498
aS'EWR'
p8499
aS'MHT'
p8500
aS'BTV'
p8501
aS'SYR'
p8502
aS'IND'
p8503
as(S'EWR'
p8504
S'MSP'
p8505
tp8506
(lp8507
S'FSD'
p8508
aS'BOI'
p8509
aS'DEN'
p8510
aS'SMF'
p8511
aS'SFO'
p8512
aS'FAR'
p8513
aS'FCA'
p8514
aS'GEG'
p8515
aS'RAP'
p8516
aS'BIS'
p8517
aS'PDX'
p8518
aS'DLH'
p8519
aS'ABQ'
p8520
aS'DSM'
p8521
aS'GRB'
p8522
aS'SJC'
p8523
aS'SLC'
p8524
aS'OMA'
p8525
aS'MCI'
p8526
aS'MOT'
p8527
aS'GFK'
p8528
aS'PHX'
p8529
aS'LAX'
p8530
aS'LAS'
p8531
as(S'SAN'
p8532
S'SEA'
p8533
tp8534
(lp8535
S'BLI'
p8536
as(S'PBI'
p8537
S'EWR'
p8538
tp8539
(lp8540
S'BTV'
p8541
aS'ROC'
p8542
aS'BDL'
p8543
aS'BOS'
p8544
aS'AVP'
p8545
aS'SYR'
p8546
aS'CLE'
p8547
aS'PWM'
p8548
aS'BUF'
p8549
aS'PIT'
p8550
as(S'LAX'
p8551
S'SLC'
p8552
tp8553
(lp8554
S'PDX'
p8555
as(S'SAT'
p8556
S'ATL'
p8557
tp8558
(lp8559
S'MLB'
p8560
aS'TPA'
p8561
aS'MCI'
p8562
aS'PHL'
p8563
aS'MDW'
p8564
aS'CLT'
p8565
aS'BNA'
p8566
aS'DAY'
p8567
as(S'ATL'
p8568
S'SLC'
p8569
tp8570
(lp8571
S'BIL'
p8572
aS'BOI'
p8573
aS'BUR'
p8574
aS'GJT'
p8575
aS'PDX'
p8576
aS'OAK'
p8577
aS'LGB'
p8578
aS'GEG'
p8579
aS'HLN'
p8580
aS'SMF'
p8581
as(S'IAH'
p8582
S'CLE'
p8583
tp8584
(lp8585
S'FNT'
p8586
aS'BDL'
p8587
aS'ROC'
p8588
aS'ALB'
p8589
aS'DAY'
p8590
aS'SYR'
p8591
aS'BTV'
p8592
aS'PVD'
p8593
aS'BWI'
p8594
aS'ERI'
p8595
aS'EWR'
p8596
aS'MHT'
p8597
aS'PWM'
p8598
aS'BUF'
p8599
aS'RIC'
p8600
aS'MDT'
p8601
as(S'DTW'
p8602
S'SLC'
p8603
tp8604
(lp8605
S'SNA'
p8606
aS'LGB'
p8607
aS'TUS'
p8608
aS'OAK'
p8609
aS'BUR'
p8610
aS'SJC'
p8611
as(S'IAH'
p8612
S'PDX'
p8613
tp8614
(lp8615
S'EUG'
p8616
as(S'PHL'
p8617
S'MSP'
p8618
tp8619
(lp8620
S'MKE'
p8621
aS'FSD'
p8622
aS'MSN'
p8623
aS'DEN'
p8624
aS'SMF'
p8625
aS'BIL'
p8626
aS'SAN'
p8627
aS'FAR'
p8628
aS'RAP'
p8629
aS'SAT'
p8630
aS'SEA'
p8631
aS'GTF'
p8632
aS'PDX'
p8633
aS'STL'
p8634
aS'DLH'
p8635
aS'LNK'
p8636
aS'ABQ'
p8637
aS'AUS'
p8638
aS'DSM'
p8639
aS'SJC'
p8640
aS'ICT'
p8641
aS'OMA'
p8642
aS'MCI'
p8643
aS'BOI'
p8644
aS'PSC'
p8645
aS'SFO'
p8646
aS'PHX'
p8647
aS'LAX'
p8648
aS'RST'
p8649
aS'LAS'
p8650
as(S'DEN'
p8651
S'DCA'
p8652
tp8653
(lp8654
S'LGA'
p8655
as(S'DCA'
p8656
S'RDU'
p8657
tp8658
(lp8659
S'MIA'
p8660
as(S'LAS'
p8661
S'MCI'
p8662
tp8663
(lp8664
S'DAL'
p8665
as(S'RDU'
p8666
S'PHL'
p8667
tp8668
(lp8669
S'BOS'
p8670
aS'LGA'
p8671
aS'PVD'
p8672
as(S'LAX'
p8673
S'MEM'
p8674
tp8675
(lp8676
S'MKE'
p8677
aS'MSY'
p8678
aS'CMH'
p8679
aS'BOS'
p8680
aS'LIT'
p8681
aS'FLL'
p8682
aS'CVG'
p8683
aS'TPA'
p8684
aS'DCA'
p8685
aS'RDU'
p8686
aS'IAH'
p8687
aS'JAX'
p8688
aS'STL'
p8689
aS'DFW'
p8690
aS'CLT'
p8691
aS'BNA'
p8692
aS'MCO'
p8693
aS'PHL'
p8694
aS'LGA'
p8695
aS'SDF'
p8696
aS'IND'
p8697
aS'ORD'
p8698
aS'TYS'
p8699
as(S'SLC'
p8700
S'GEG'
p8701
tp8702
(lp8703
S'SEA'
p8704
as(S'IAH'
p8705
S'DTW'
p8706
tp8707
(lp8708
S'BOS'
p8709
aS'LAN'
p8710
aS'FNT'
p8711
aS'GRB'
p8712
aS'ROC'
p8713
aS'MSN'
p8714
aS'BDL'
p8715
aS'ELM'
p8716
aS'BGM'
p8717
aS'LGA'
p8718
aS'CAK'
p8719
aS'SYR'
p8720
aS'BTV'
p8721
aS'AZO'
p8722
aS'PVD'
p8723
aS'EWR'
p8724
aS'MHT'
p8725
aS'SWF'
p8726
aS'BUF'
p8727
aS'DAY'
p8728
as(S'IAH'
p8729
S'PHX'
p8730
tp8731
(lp8732
S'LGB'
p8733
aS'SAN'
p8734
as(S'LAS'
p8735
S'DFW'
p8736
tp8737
(lp8738
S'IAH'
p8739
aS'MCI'
p8740
aS'CLE'
p8741
aS'CLT'
p8742
aS'ORD'
p8743
aS'DTW'
p8744
aS'SAT'
p8745
as(S'TUL'
p8746
S'ORD'
p8747
tp8748
(lp8749
S'RDU'
p8750
aS'MLI'
p8751
aS'GRR'
p8752
aS'CID'
p8753
aS'LGA'
p8754
aS'FWA'
p8755
aS'SDF'
p8756
aS'IND'
p8757
aS'RIC'
p8758
as(S'ORD'
p8759
S'RSW'
p8760
tp8761
(lp8762
S'FLL'
p8763
as(S'PBI'
p8764
S'LGA'
p8765
tp8766
(lp8767
S'BTV'
p8768
aS'PIT'
p8769
aS'ROC'
p8770
aS'SYR'
p8771
aS'HPN'
p8772
aS'MHT'
p8773
aS'PWM'
p8774
aS'BUF'
p8775
as(S'LAS'
p8776
S'IAD'
p8777
tp8778
(lp8779
S'RDU'
p8780
aS'ORF'
p8781
aS'BOS'
p8782
aS'TPA'
p8783
aS'CMH'
p8784
aS'PIT'
p8785
aS'BDL'
p8786
aS'ROC'
p8787
aS'ALB'
p8788
aS'BGM'
p8789
aS'LGA'
p8790
aS'SYR'
p8791
aS'CHS'
p8792
aS'MDT'
p8793
aS'BTV'
p8794
aS'CLT'
p8795
aS'GSO'
p8796
aS'BUF'
p8797
aS'RIC'
p8798
aS'CAE'
p8799
aS'TYS'
p8800
as(S'DFW'
p8801
S'XNA'
p8802
tp8803
(lp8804
S'ORD'
p8805
as(S'MIA'
p8806
S'LGA'
p8807
tp8808
(lp8809
S'PIT'
p8810
aS'BOS'
p8811
aS'BUF'
p8812
aS'ROC'
p8813
as(S'ATL'
p8814
S'DCA'
p8815
tp8816
(lp8817
S'BWI'
p8818
as(S'PBI'
p8819
S'JFK'
p8820
tp8821
(lp8822
S'BOS'
p8823
aS'ROC'
p8824
aS'LGA'
p8825
as(S'STL'
p8826
S'MSP'
p8827
tp8828
(lp8829
S'MKE'
p8830
aS'OMA'
p8831
aS'ABQ'
p8832
aS'PHX'
p8833
aS'LNK'
p8834
aS'BWI'
p8835
as(S'MCO'
p8836
S'ATL'
p8837
tp8838
(lp8839
S'GSP'
p8840
aS'BOS'
p8841
aS'OAJ'
p8842
aS'MSP'
p8843
aS'GSO'
p8844
aS'BKG'
p8845
aS'ROC'
p8846
aS'DCA'
p8847
aS'PVD'
p8848
aS'BDL'
p8849
aS'BUF'
p8850
aS'DAY'
p8851
aS'RIC'
p8852
aS'ILM'
p8853
aS'ABE'
p8854
aS'IAD'
p8855
aS'AUS'
p8856
aS'HPN'
p8857
aS'EWR'
p8858
aS'MHT'
p8859
aS'OMA'
p8860
aS'BHM'
p8861
aS'PHL'
p8862
aS'LGA'
p8863
aS'MDW'
p8864
aS'SYR'
p8865
aS'ORF'
p8866
aS'PWM'
p8867
as(S'CLT'
p8868
S'MIA'
p8869
tp8870
(lp8871
S'MCO'
p8872
aS'TPA'
p8873
aS'EYW'
p8874
aS'SJU'
p8875
as(S'SAN'
p8876
S'DFW'
p8877
tp8878
(lp8879
S'OMA'
p8880
aS'IAH'
p8881
aS'MCI'
p8882
aS'PHL'
p8883
aS'STL'
p8884
aS'MSP'
p8885
aS'LIT'
p8886
aS'AUS'
p8887
aS'DSM'
p8888
aS'BNA'
p8889
aS'GRK'
p8890
aS'SAT'
p8891
as(S'SLC'
p8892
S'SNA'
p8893
tp8894
(lp8895
S'LAX'
p8896
aS'SAN'
p8897
as(S'MSP'
p8898
S'CVG'
p8899
tp8900
(lp8901
S'MCO'
p8902
aS'RIC'
p8903
aS'MDT'
p8904
as(S'BWI'
p8905
S'OKC'
p8906
tp8907
(lp8908
S'DAL'
p8909
as(S'PHL'
p8910
S'CLT'
p8911
tp8912
(lp8913
S'RDU'
p8914
aS'GNV'
p8915
aS'MIA'
p8916
aS'ATL'
p8917
aS'TPA'
p8918
aS'OAJ'
p8919
aS'FLL'
p8920
aS'FLO'
p8921
aS'GSO'
p8922
aS'EWN'
p8923
aS'FAY'
p8924
aS'SAN'
p8925
aS'VPS'
p8926
aS'MYR'
p8927
aS'PGV'
p8928
aS'PHX'
p8929
aS'HSV'
p8930
aS'TYS'
p8931
aS'SAV'
p8932
aS'MLB'
p8933
aS'IAH'
p8934
aS'JAX'
p8935
aS'STL'
p8936
aS'SRQ'
p8937
aS'EYW'
p8938
aS'GPT'
p8939
aS'BNA'
p8940
aS'PBI'
p8941
aS'MCO'
p8942
aS'DAB'
p8943
aS'MCI'
p8944
aS'BTR'
p8945
aS'MEM'
p8946
aS'PNS'
p8947
aS'AVL'
p8948
aS'CHS'
p8949
aS'MOB'
p8950
aS'RSW'
p8951
aS'LAS'
p8952
as(S'SLC'
p8953
S'CVG'
p8954
tp8955
(lp8956
S'MCO'
p8957
aS'RDU'
p8958
aS'PIT'
p8959
as(S'MEM'
p8960
S'DFW'
p8961
tp8962
(lp8963
S'COS'
p8964
aS'CRP'
p8965
aS'DEN'
p8966
aS'SAN'
p8967
aS'AMA'
p8968
aS'FAT'
p8969
aS'LBB'
p8970
aS'SEA'
p8971
aS'ONT'
p8972
aS'SAT'
p8973
aS'PDX'
p8974
aS'ABQ'
p8975
aS'AUS'
p8976
aS'ELP'
p8977
aS'SLC'
p8978
aS'RNO'
p8979
aS'TUS'
p8980
aS'SFO'
p8981
aS'PHX'
p8982
aS'LAX'
p8983
aS'PSP'
p8984
aS'LAS'
p8985
as(S'DFW'
p8986
S'CLT'
p8987
tp8988
(lp8989
S'JFK'
p8990
aS'GSP'
p8991
aS'SBY'
p8992
aS'CRW'
p8993
aS'CMH'
p8994
aS'MIA'
p8995
aS'ATL'
p8996
aS'ILM'
p8997
aS'OAJ'
p8998
aS'CAK'
p8999
aS'FLO'
p9000
aS'AGS'
p9001
aS'MHT'
p9002
aS'CAE'
p9003
aS'FAY'
p9004
aS'TPA'
p9005
aS'VPS'
p9006
aS'DTW'
p9007
aS'ROC'
p9008
aS'DCA'
p9009
aS'PGV'
p9010
aS'GSO'
p9011
aS'IAD'
p9012
aS'BWI'
p9013
aS'LYH'
p9014
aS'DAY'
p9015
aS'MDT'
p9016
aS'PIT'
p9017
aS'RDU'
p9018
aS'CHA'
p9019
aS'BOS'
p9020
aS'EWN'
p9021
aS'JAX'
p9022
aS'BDL'
p9023
aS'CHO'
p9024
aS'IND'
p9025
aS'CHS'
p9026
aS'EWR'
p9027
aS'BNA'
p9028
aS'TLH'
p9029
aS'PBI'
p9030
aS'MCO'
p9031
aS'BHM'
p9032
aS'DAB'
p9033
aS'PHL'
p9034
aS'BUF'
p9035
aS'LGA'
p9036
aS'PHF'
p9037
aS'CLE'
p9038
aS'SDF'
p9039
aS'HTS'
p9040
aS'ORF'
p9041
aS'ORD'
p9042
aS'RSW'
p9043
aS'TRI'
p9044
aS'TYS'
p9045
as(S'DAL'
p9046
S'STL'
p9047
tp9048
(lp9049
S'BOS'
p9050
aS'PHL'
p9051
aS'LGA'
p9052
aS'MSP'
p9053
aS'SEA'
p9054
aS'EWR'
p9055
aS'BWI'
p9056
aS'BNA'
p9057
aS'MDW'
p9058
as(S'ORD'
p9059
S'LGA'
p9060
tp9061
(lp9062
S'JFK'
p9063
aS'MYR'
p9064
aS'BOS'
p9065
aS'FLL'
p9066
as(S'PHX'
p9067
S'SEA'
p9068
tp9069
(lp9070
S'PSC'
p9071
aS'EUG'
p9072
aS'MSO'
p9073
aS'MFR'
p9074
aS'BLI'
p9075
aS'RDM'
p9076
aS'ALW'
p9077
as(S'MSY'
p9078
S'LAX'
p9079
tp9080
(lp9081
S'PHX'
p9082
aS'SAN'
p9083
aS'LAS'
p9084
as(S'SFO'
p9085
S'MIA'
p9086
tp9087
(lp9088
S'MCO'
p9089
as(S'XNA'
p9090
S'DFW'
p9091
tp9092
(lp9093
S'MSY'
p9094
aS'BTR'
p9095
aS'MIA'
p9096
aS'TUS'
p9097
aS'DCA'
p9098
aS'ABQ'
p9099
aS'AUS'
p9100
aS'FLL'
p9101
aS'CLT'
p9102
aS'BWI'
p9103
aS'ELP'
p9104
as(S'DTW'
p9105
S'MDW'
p9106
tp9107
(lp9108
S'ORD'
p9109
as(S'PDX'
p9110
S'SNA'
p9111
tp9112
(lp9113
S'SAN'
p9114
as(S'DFW'
p9115
S'DCA'
p9116
tp9117
(lp9118
S'JFK'
p9119
aS'BWI'
p9120
aS'LGA'
p9121
as(S'HNL'
p9122
S'SFO'
p9123
tp9124
(lp9125
S'RNO'
p9126
aS'MRY'
p9127
aS'PDX'
p9128
aS'SAN'
p9129
aS'FAT'
p9130
aS'PHX'
p9131
aS'LAX'
p9132
aS'SEA'
p9133
aS'SMF'
p9134
aS'LAS'
p9135
as(S'BNA'
p9136
S'LGA'
p9137
tp9138
(lp9139
S'JFK'
p9140
aS'MHT'
p9141
as(S'CLE'
p9142
S'IAH'
p9143
tp9144
(lp9145
S'COS'
p9146
aS'MSY'
p9147
aS'SMF'
p9148
aS'SNA'
p9149
aS'SAN'
p9150
aS'SEA'
p9151
aS'LAX'
p9152
aS'SAT'
p9153
aS'PDX'
p9154
aS'DFW'
p9155
aS'SJU'
p9156
aS'ABQ'
p9157
aS'AUS'
p9158
aS'ELP'
p9159
aS'SLC'
p9160
aS'BTR'
p9161
aS'TUS'
p9162
aS'SFO'
p9163
aS'OKC'
p9164
aS'PHX'
p9165
aS'TUL'
p9166
aS'LAS'
p9167
as(S'MSP'
p9168
S'SFO'
p9169
tp9170
(lp9171
S'SBA'
p9172
as(S'ORD'
p9173
S'MCO'
p9174
tp9175
(lp9176
S'MIA'
p9177
aS'RSW'
p9178
aS'FLL'
p9179
aS'TPA'
p9180
as(S'PHX'
p9181
S'IAD'
p9182
tp9183
(lp9184
S'ROC'
p9185
aS'BOS'
p9186
aS'SYR'
p9187
aS'BTV'
p9188
aS'PVD'
p9189
aS'PWM'
p9190
aS'BUF'
p9191
aS'RIC'
p9192
aS'MDT'
p9193
as(S'TPA'
p9194
S'PHL'
p9195
tp9196
(lp9197
S'BWI'
p9198
aS'SBY'
p9199
aS'BOS'
p9200
aS'HPN'
p9201
aS'LGA'
p9202
as(S'LAX'
p9203
S'SEA'
p9204
tp9205
(lp9206
S'PSC'
p9207
aS'BIL'
p9208
aS'PDX'
p9209
as(S'DTW'
p9210
S'DFW'
p9211
tp9212
(lp9213
S'COS'
p9214
aS'MSY'
p9215
aS'BTR'
p9216
aS'SNA'
p9217
aS'FAT'
p9218
aS'ABQ'
p9219
aS'PHX'
p9220
aS'DEN'
p9221
aS'ACT'
p9222
aS'SAT'
p9223
aS'PSP'
p9224
aS'SLC'
p9225
aS'TYR'
p9226
aS'LAS'
p9227
as(S'EWR'
p9228
S'PHX'
p9229
tp9230
(lp9231
S'ABQ'
p9232
aS'LAS'
p9233
as(S'MDW'
p9234
S'ATL'
p9235
tp9236
(lp9237
S'RDU'
p9238
aS'GSP'
p9239
aS'MYR'
p9240
aS'BOS'
p9241
aS'MCO'
p9242
aS'ILM'
p9243
aS'OAJ'
p9244
aS'LGA'
p9245
aS'FAY'
p9246
aS'FLL'
p9247
aS'BNA'
p9248
aS'AGS'
p9249
as(S'LAX'
p9250
S'JFK'
p9251
tp9252
(lp9253
S'BOS'
p9254
aS'BTV'
p9255
aS'ROC'
p9256
aS'PHL'
p9257
aS'IAD'
p9258
aS'LGA'
p9259
aS'SJU'
p9260
aS'SYR'
p9261
aS'BDL'
p9262
aS'EWR'
p9263
aS'DCA'
p9264
aS'BUF'
p9265
aS'PWM'
p9266
as(S'BNA'
p9267
S'SAT'
p9268
tp9269
(lp9270
S'LAS'
p9271
as(S'HOU'
p9272
S'BWI'
p9273
tp9274
(lp9275
S'ISP'
p9276
aS'BDL'
p9277
aS'BOS'
p9278
aS'LGA'
p9279
aS'BUF'
p9280
aS'PVD'
p9281
aS'MHT'
p9282
aS'PIT'
p9283
as(S'DFW'
p9284
S'CVG'
p9285
tp9286
(lp9287
S'RDU'
p9288
aS'MCO'
p9289
aS'MKE'
p9290
aS'GRR'
p9291
aS'PHL'
p9292
aS'BDL'
p9293
aS'BOS'
p9294
aS'DCA'
p9295
aS'BWI'
p9296
aS'ORD'
p9297
aS'PIT'
p9298
aS'MDT'
p9299
as(S'JFK'
p9300
S'LAS'
p9301
tp9302
(lp9303
S'LGB'
p9304
aS'SFO'
p9305
aS'LAX'
p9306
aS'SAN'
p9307
as(S'BNA'
p9308
S'PHL'
p9309
tp9310
(lp9311
S'ORF'
p9312
aS'BWI'
p9313
aS'SBY'
p9314
aS'PVD'
p9315
as(S'BOS'
p9316
S'DCA'
p9317
tp9318
(lp9319
S'IAD'
p9320
aS'BUF'
p9321
aS'OAJ'
p9322
as(S'HNL'
p9323
S'LAX'
p9324
tp9325
(lp9326
S'SAN'
p9327
aS'PDX'
p9328
aS'CLD'
p9329
aS'OAK'
p9330
aS'FAT'
p9331
aS'SFO'
p9332
aS'PHX'
p9333
aS'SEA'
p9334
aS'SJC'
p9335
aS'SMF'
p9336
aS'LAS'
p9337
aS'MRY'
p9338
as(S'ATL'
p9339
S'MCI'
p9340
tp9341
(lp9342
S'ABQ'
p9343
aS'DEN'
p9344
as(S'MEM'
p9345
S'MSP'
p9346
tp9347
(lp9348
S'LAX'
p9349
aS'BIL'
p9350
aS'FSD'
p9351
aS'SAN'
p9352
aS'PDX'
p9353
aS'FAR'
p9354
aS'OMA'
p9355
aS'DEN'
p9356
aS'MOT'
p9357
aS'BOI'
p9358
aS'PHX'
p9359
aS'GEG'
p9360
aS'SEA'
p9361
aS'SFO'
p9362
aS'BZN'
p9363
aS'SMF'
p9364
aS'LAS'
p9365
as(S'CLT'
p9366
S'CLE'
p9367
tp9368
(lp9369
S'MKE'
p9370
aS'LGA'
p9371
aS'GRR'
p9372
aS'MCI'
p9373
aS'CMH'
p9374
aS'STL'
p9375
aS'BDL'
p9376
aS'ROC'
p9377
aS'ALB'
p9378
aS'ERI'
p9379
aS'BUF'
p9380
aS'SFO'
p9381
aS'FNT'
p9382
aS'LAX'
p9383
aS'IND'
p9384
aS'ORD'
p9385
aS'PHL'
p9386
aS'PIT'
p9387
aS'DAY'
p9388
aS'LAS'
p9389
as(S'ATL'
p9390
S'CAE'
p9391
tp9392
(lp9393
S'LGA'
p9394
as(S'MSP'
p9395
S'CLT'
p9396
tp9397
(lp9398
S'RDU'
p9399
aS'GSP'
p9400
aS'SJU'
p9401
aS'GNV'
p9402
aS'MSY'
p9403
aS'MIA'
p9404
aS'ATL'
p9405
aS'BOS'
p9406
aS'OAJ'
p9407
aS'FLL'
p9408
aS'FLO'
p9409
aS'CVG'
p9410
aS'AGS'
p9411
aS'CAE'
p9412
aS'IAH'
p9413
aS'ORF'
p9414
aS'FAY'
p9415
aS'JAX'
p9416
aS'DAB'
p9417
aS'ROA'
p9418
aS'MYR'
p9419
aS'PGV'
p9420
aS'HSV'
p9421
aS'GSO'
p9422
aS'BWI'
p9423
aS'LYH'
p9424
aS'RIC'
p9425
aS'SAT'
p9426
aS'TRI'
p9427
aS'CHA'
p9428
aS'ILM'
p9429
aS'EWN'
p9430
aS'TPA'
p9431
aS'CHO'
p9432
aS'STT'
p9433
aS'IND'
p9434
aS'SRQ'
p9435
aS'BNA'
p9436
aS'TLH'
p9437
aS'PBI'
p9438
aS'MCO'
p9439
aS'RSW'
p9440
aS'BHM'
p9441
aS'VPS'
p9442
aS'MEM'
p9443
aS'PIT'
p9444
aS'PNS'
p9445
aS'PHF'
p9446
aS'SAV'
p9447
aS'AVL'
p9448
aS'SDF'
p9449
aS'CHS'
p9450
aS'LEX'
p9451
aS'HHH'
p9452
aS'TYS'
p9453
as(S'MSP'
p9454
S'LAX'
p9455
tp9456
(lp9457
S'OAK'
p9458
aS'SAN'
p9459
as(S'SJC'
p9460
S'SEA'
p9461
tp9462
(lp9463
S'MSO'
p9464
aS'BZN'
p9465
as(S'DCA'
p9466
S'LGA'
p9467
tp9468
(lp9469
S'ORD'
p9470
aS'BOS'
p9471
as(S'LAS'
p9472
S'SEA'
p9473
tp9474
(lp9475
S'PSC'
p9476
aS'FCA'
p9477
aS'MFR'
p9478
aS'BLI'
p9479
aS'BZN'
p9480
aS'RDM'
p9481
aS'ALW'
p9482
as(S'ORD'
p9483
S'EWR'
p9484
tp9485
(lp9486
S'LGA'
p9487
aS'ITH'
p9488
aS'ACK'
p9489
aS'BOS'
p9490
aS'SJU'
p9491
aS'BQN'
p9492
aS'PVD'
p9493
aS'MHT'
p9494
as(S'JFK'
p9495
S'LAX'
p9496
tp9497
(lp9498
S'SBP'
p9499
aS'PHX'
p9500
aS'RNO'
p9501
aS'MRY'
p9502
aS'PDX'
p9503
aS'CLD'
p9504
aS'TUS'
p9505
aS'OAK'
p9506
aS'SAN'
p9507
aS'FAT'
p9508
aS'SFO'
p9509
aS'SBA'
p9510
aS'SEA'
p9511
aS'SJC'
p9512
aS'SMF'
p9513
aS'PSP'
p9514
aS'LAS'
p9515
as(S'CLE'
p9516
S'MCO'
p9517
tp9518
(lp9519
S'FLL'
p9520
aS'TPA'
p9521
as(S'MCI'
p9522
S'ATL'
p9523
tp9524
(lp9525
S'MLB'
p9526
aS'MSY'
p9527
aS'ILM'
p9528
aS'OAJ'
p9529
aS'GPT'
p9530
aS'FLL'
p9531
aS'ROC'
p9532
aS'DCA'
p9533
aS'CLE'
p9534
aS'BWI'
p9535
aS'PIT'
p9536
aS'SAT'
p9537
aS'RDU'
p9538
aS'TPA'
p9539
aS'IAD'
p9540
aS'HPN'
p9541
aS'CLT'
p9542
aS'BNA'
p9543
aS'PBI'
p9544
aS'MCO'
p9545
aS'PHL'
p9546
aS'PNS'
p9547
aS'BTR'
p9548
aS'IND'
p9549
aS'RSW'
p9550
as(S'DCA'
p9551
S'CLT'
p9552
tp9553
(lp9554
S'GSP'
p9555
aS'MIA'
p9556
aS'ATL'
p9557
aS'FLL'
p9558
aS'AGS'
p9559
aS'FAY'
p9560
aS'DAB'
p9561
aS'MYR'
p9562
aS'SAV'
p9563
aS'MLB'
p9564
aS'CHA'
p9565
aS'TPA'
p9566
aS'STL'
p9567
aS'DFW'
p9568
aS'SJU'
p9569
aS'SRQ'
p9570
aS'PBI'
p9571
aS'MCO'
p9572
aS'MCI'
p9573
aS'PNS'
p9574
aS'LEX'
p9575
aS'RSW'
p9576
as(S'PHX'
p9577
S'MCI'
p9578
tp9579
(lp9580
S'STL'
p9581
aS'BOS'
p9582
as(S'MCO'
p9583
S'LAX'
p9584
tp9585
(lp9586
S'MRY'
p9587
aS'PDX'
p9588
aS'OAK'
p9589
aS'SAN'
p9590
aS'FAT'
p9591
aS'SFO'
p9592
aS'SEA'
p9593
aS'SJC'
p9594
aS'SMF'
p9595
aS'PSP'
p9596
aS'LAS'
p9597
as(S'IAH'
p9598
S'MSY'
p9599
tp9600
(lp9601
S'BOS'
p9602
as(S'LAS'
p9603
S'IAH'
p9604
tp9605
(lp9606
S'CLL'
p9607
aS'MKE'
p9608
aS'MSY'
p9609
aS'CMH'
p9610
aS'ATL'
p9611
aS'BOS'
p9612
aS'LIT'
p9613
aS'CLT'
p9614
aS'FLL'
p9615
aS'DTW'
p9616
aS'JAX'
p9617
aS'OKC'
p9618
aS'DCA'
p9619
aS'BWI'
p9620
aS'PIT'
p9621
aS'SAT'
p9622
aS'RDU'
p9623
aS'BTR'
p9624
aS'TPA'
p9625
aS'STL'
p9626
aS'CLE'
p9627
aS'DFW'
p9628
aS'ORF'
p9629
aS'AUS'
p9630
aS'CHS'
p9631
aS'GPT'
p9632
aS'BNA'
p9633
aS'PBI'
p9634
aS'GRK'
p9635
aS'ICT'
p9636
aS'BHM'
p9637
aS'MCI'
p9638
aS'PHL'
p9639
aS'MEM'
p9640
aS'LGA'
p9641
aS'SDF'
p9642
aS'TUL'
p9643
aS'IND'
p9644
aS'ORD'
p9645
aS'RSW'
p9646
aS'TYS'
p9647
as(S'BWI'
p9648
S'TPA'
p9649
tp9650
(lp9651
S'FLL'
p9652
as(S'MCO'
p9653
S'PHL'
p9654
tp9655
(lp9656
S'LGA'
p9657
aS'ABE'
p9658
aS'BDL'
p9659
aS'BOS'
p9660
aS'BGM'
p9661
aS'RIC'
p9662
aS'SYR'
p9663
aS'HPN'
p9664
aS'ORF'
p9665
aS'SBY'
p9666
aS'BUF'
p9667
aS'ERI'
p9668
aS'PVD'
p9669
as(S'DTW'
p9670
S'STL'
p9671
tp9672
(lp9673
S'TPA'
p9674
as(S'SNA'
p9675
S'HOU'
p9676
tp9677
(lp9678
S'MCO'
p9679
aS'DAL'
p9680
as(S'DTW'
p9681
S'DCA'
p9682
tp9683
(lp9684
S'RDU'
p9685
aS'MCO'
p9686
aS'SAN'
p9687
aS'MSY'
p9688
aS'LGA'
p9689
aS'ALB'
p9690
aS'CHS'
p9691
aS'FLL'
p9692
aS'TPA'
p9693
aS'ORF'
p9694
aS'BWI'
p9695
as(S'IAD'
p9696
S'SFO'
p9697
tp9698
(lp9699
S'SBP'
p9700
aS'SAN'
p9701
aS'RNO'
p9702
aS'MRY'
p9703
aS'ANC'
p9704
aS'BUR'
p9705
aS'EUG'
p9706
aS'SNA'
p9707
aS'MFR'
p9708
aS'FAT'
p9709
aS'BOI'
p9710
aS'RDD'
p9711
aS'SBA'
p9712
aS'ACV'
p9713
aS'PDX'
p9714
aS'SEA'
p9715
aS'RDM'
p9716
aS'PSP'
p9717
aS'ONT'
p9718
aS'LAS'
p9719
as(S'PHL'
p9720
S'SEA'
p9721
tp9722
(lp9723
S'GEG'
p9724
aS'PDX'
p9725
as(S'IAH'
p9726
S'MIA'
p9727
tp9728
(lp9729
S'MCO'
p9730
aS'TPA'
p9731
aS'FLL'
p9732
aS'EYW'
p9733
as(S'EWR'
p9734
S'BUF'
p9735
tp9736
(lp9737
S'IAH'
p9738
as(S'ORD'
p9739
S'LAX'
p9740
tp9741
(lp9742
S'SAN'
p9743
aS'CLD'
p9744
aS'FAT'
p9745
aS'SFO'
p9746
aS'SBA'
p9747
aS'LAS'
p9748
as(S'MEM'
p9749
S'IAH'
p9750
tp9751
(lp9752
S'MIA'
p9753
as(S'IAD'
p9754
S'CLE'
p9755
tp9756
(lp9757
S'MSN'
p9758
aS'SDF'
p9759
aS'MKE'
p9760
aS'MCI'
p9761
aS'LAS'
p9762
as(S'DFW'
p9763
S'SJC'
p9764
tp9765
(lp9766
S'SFO'
p9767
as(S'MCO'
p9768
S'SFO'
p9769
tp9770
(lp9771
S'SAN'
p9772
aS'PDX'
p9773
aS'EUG'
p9774
aS'SNA'
p9775
aS'LAX'
p9776
aS'SEA'
p9777
aS'ONT'
p9778
aS'MRY'
p9779
as(S'SAN'
p9780
S'BWI'
p9781
tp9782
(lp9783
S'RDU'
p9784
aS'BOS'
p9785
aS'CLE'
p9786
aS'ISP'
p9787
aS'PVD'
p9788
aS'BDL'
p9789
aS'MHT'
p9790
aS'PWM'
p9791
aS'BUF'
p9792
as(S'SAN'
p9793
S'JFK'
p9794
tp9795
(lp9796
S'BOS'
p9797
aS'PHL'
p9798
aS'ROC'
p9799
aS'LGA'
p9800
aS'ORF'
p9801
aS'BWI'
p9802
as(S'BNA'
p9803
S'BWI'
p9804
tp9805
(lp9806
S'EWR'
p9807
aS'LGA'
p9808
as(S'DFW'
p9809
S'JFK'
p9810
tp9811
(lp9812
S'BOS'
p9813
as(S'ATL'
p9814
S'IAD'
p9815
tp9816
(lp9817
S'JFK'
p9818
aS'BOS'
p9819
aS'LGA'
p9820
aS'BGM'
p9821
aS'ORF'
p9822
aS'BWI'
p9823
aS'DTW'
p9824
as(S'MCO'
p9825
S'DTW'
p9826
tp9827
(lp9828
S'MKE'
p9829
aS'FNT'
p9830
aS'BGM'
p9831
aS'SWF'
p9832
aS'MSN'
p9833
aS'ERI'
p9834
aS'ROC'
p9835
aS'DCA'
p9836
aS'BUF'
p9837
aS'DAY'
p9838
aS'GRR'
p9839
aS'ABE'
p9840
aS'ELM'
p9841
aS'BDL'
p9842
aS'OMA'
p9843
aS'EWR'
p9844
aS'LAN'
p9845
aS'BTV'
p9846
aS'PHL'
p9847
aS'PIT'
p9848
aS'LGA'
p9849
aS'SYR'
p9850
aS'IND'
p9851
as(S'SAN'
p9852
S'MCI'
p9853
tp9854
(lp9855
S'MCO'
p9856
aS'DAL'
p9857
aS'STL'
p9858
aS'MDW'
p9859
as(S'BWI'
p9860
S'HOU'
p9861
tp9862
(lp9863
S'DAL'
p9864
aS'ELP'
p9865
aS'AUS'
p9866
as(S'BOS'
p9867
S'RDU'
p9868
tp9869
(lp9870
S'ATL'
p9871
aS'TPA'
p9872
as(S'PBI'
p9873
S'DCA'
p9874
tp9875
(lp9876
S'LGA'
p9877
as(S'IAH'
p9878
S'MSP'
p9879
tp9880
(lp9881
S'BIL'
p9882
aS'FNT'
p9883
aS'FSD'
p9884
aS'MSN'
p9885
aS'FAR'
p9886
aS'DLH'
p9887
aS'GFK'
p9888
aS'GEG'
p9889
aS'RST'
p9890
aS'GRB'
p9891
aS'ORD'
p9892
aS'ATW'
p9893
aS'BIS'
p9894
as(S'DEN'
p9895
S'SNA'
p9896
tp9897
(lp9898
S'LAX'
p9899
aS'SAN'
p9900
as(S'MSP'
p9901
S'DFW'
p9902
tp9903
(lp9904
S'VPS'
p9905
aS'TPA'
p9906
aS'BTR'
p9907
aS'AEX'
p9908
aS'PNS'
p9909
aS'JAX'
p9910
aS'PHX'
p9911
aS'HSV'
p9912
aS'MSY'
p9913
aS'PSP'
p9914
aS'RSW'
p9915
aS'PBI'
p9916
aS'ATL'
p9917
aS'TYR'
p9918
aS'LAS'
p9919
as(S'CVG'
p9920
S'LAX'
p9921
tp9922
(lp9923
S'SMF'
p9924
aS'SAN'
p9925
aS'SFO'
p9926
as(S'LAX'
p9927
S'HNL'
p9928
tp9929
(lp9930
S'ITO'
p9931
aS'OGG'
p9932
as(S'EWR'
p9933
S'FLL'
p9934
tp9935
(lp9936
S'RSW'
p9937
as(S'SEA'
p9938
S'DFW'
p9939
tp9940
(lp9941
S'MCO'
p9942
aS'MKE'
p9943
aS'RSW'
p9944
aS'IAH'
p9945
aS'PHL'
p9946
aS'STL'
p9947
aS'CLE'
p9948
aS'OMA'
p9949
aS'LIT'
p9950
aS'DSM'
p9951
aS'BWI'
p9952
aS'BNA'
p9953
aS'TYS'
p9954
aS'SAT'
p9955
as(S'IAD'
p9956
S'MCO'
p9957
tp9958
(lp9959
S'MIA'
p9960
as(S'ORD'
p9961
S'BOS'
p9962
tp9963
(lp9964
S'JFK'
p9965
aS'EWR'
p9966
aS'DCA'
p9967
as(S'MCO'
p9968
S'DEN'
p9969
tp9970
(lp9971
S'ABQ'
p9972
aS'OMA'
p9973
aS'COS'
p9974
aS'SEA'
p9975
aS'SAN'
p9976
as(S'DFW'
p9977
S'TUS'
p9978
tp9979
(lp9980
S'PHX'
p9981
aS'LAX'
p9982
as(S'LAS'
p9983
S'CLE'
p9984
tp9985
(lp9986
S'MKE'
p9987
aS'CMH'
p9988
aS'BOS'
p9989
aS'ERI'
p9990
aS'ROC'
p9991
aS'PVD'
p9992
aS'BWI'
p9993
aS'BUF'
p9994
aS'RIC'
p9995
aS'MDT'
p9996
aS'RDU'
p9997
aS'TPA'
p9998
aS'BDL'
p9999
aS'CLT'
p10000
aS'MHT'
p10001
aS'PHL'
p10002
aS'PIT'
p10003
aS'LGA'
p10004
aS'ALB'
p10005
aS'DAY'
p10006
aS'SYR'
p10007
aS'IND'
p10008
as(S'DEN'
p10009
S'IAD'
p10010
tp10011
(lp10012
S'JFK'
p10013
aS'GSP'
p10014
aS'CMH'
p10015
aS'BOS'
p10016
aS'BGM'
p10017
aS'FLL'
p10018
aS'CAE'
p10019
aS'ROC'
p10020
aS'PVD'
p10021
aS'CLE'
p10022
aS'BUF'
p10023
aS'RIC'
p10024
aS'MDT'
p10025
aS'RDU'
p10026
aS'TPA'
p10027
aS'BDL'
p10028
aS'CHO'
p10029
aS'CHS'
p10030
aS'SHD'
p10031
aS'CLT'
p10032
aS'BTV'
p10033
aS'PHL'
p10034
aS'LGA'
p10035
aS'ALB'
p10036
aS'SAV'
p10037
aS'SYR'
p10038
aS'ORF'
p10039
aS'GSO'
p10040
aS'PWM'
p10041
aS'TYS'
p10042
as(S'EWR'
p10043
S'SAN'
p10044
tp10045
(lp10046
S'SFO'
p10047
aS'LAX'
p10048
as(S'TPA'
p10049
S'DFW'
p10050
tp10051
(lp10052
S'IAH'
p10053
aS'STL'
p10054
aS'MSP'
p10055
aS'AUS'
p10056
aS'DSM'
p10057
aS'DEN'
p10058
aS'ORD'
p10059
aS'GRK'
p10060
aS'TYR'
p10061
aS'SAT'
p10062
as(S'CLT'
p10063
S'IAH'
p10064
tp10065
(lp10066
S'COS'
p10067
aS'MSY'
p10068
aS'DEN'
p10069
aS'SMF'
p10070
aS'SAN'
p10071
aS'BTR'
p10072
aS'SEA'
p10073
aS'ONT'
p10074
aS'SAT'
p10075
aS'PDX'
p10076
aS'DFW'
p10077
aS'ABQ'
p10078
aS'AUS'
p10079
aS'SJC'
p10080
aS'ELP'
p10081
aS'SNA'
p10082
aS'TUS'
p10083
aS'SFO'
p10084
aS'OKC'
p10085
aS'PHX'
p10086
aS'LAX'
p10087
aS'LAS'
p10088
as(S'ORD'
p10089
S'LAS'
p10090
tp10091
(lp10092
S'LAX'
p10093
aS'SAN'
p10094
as(S'BOS'
p10095
S'ORD'
p10096
tp10097
(lp10098
S'MLI'
p10099
aS'MKE'
p10100
aS'PHX'
p10101
aS'MSY'
p10102
aS'TPA'
p10103
as(S'DCA'
p10104
S'MIA'
p10105
tp10106
(lp10107
S'MCO'
p10108
aS'TPA'
p10109
as(S'DCA'
p10110
S'ORD'
p10111
tp10112
(lp10113
S'OMA'
p10114
aS'MCI'
p10115
aS'MKE'
p10116
aS'LIT'
p10117
aS'MSN'
p10118
aS'DSM'
p10119
aS'DBQ'
p10120
aS'ICT'
p10121
as(S'PDX'
p10122
S'DFW'
p10123
tp10124
(lp10125
S'OMA'
p10126
aS'IAH'
p10127
aS'MCI'
p10128
aS'PHL'
p10129
aS'LGA'
p10130
aS'AUS'
p10131
aS'GRK'
p10132
as(S'MSP'
p10133
S'IAD'
p10134
tp10135
(lp10136
S'DCA'
p10137
as(S'CMH'
p10138
S'LGA'
p10139
tp10140
(lp10141
S'JFK'
p10142
aS'MHT'
p10143
aS'PWM'
p10144
as(S'DEN'
p10145
S'EWR'
p10146
tp10147
(lp10148
S'BOS'
p10149
aS'ROC'
p10150
aS'ITH'
p10151
aS'LGA'
p10152
aS'SYR'
p10153
aS'BTV'
p10154
aS'PVD'
p10155
aS'ORF'
p10156
aS'MHT'
p10157
aS'PWM'
p10158
aS'BUF'
p10159
aS'MDT'
p10160
as(S'MIA'
p10161
S'ORD'
p10162
tp10163
(lp10164
S'MKE'
p10165
aS'BOS'
p10166
aS'MCI'
p10167
aS'CMH'
p10168
aS'STL'
p10169
aS'BDL'
p10170
aS'MLI'
p10171
aS'MSN'
p10172
aS'DSM'
p10173
aS'DEN'
p10174
aS'IND'
p10175
aS'CVG'
p10176
aS'DTW'
p10177
aS'DAY'
p10178
as(S'DTW'
p10179
S'PHX'
p10180
tp10181
(lp10182
S'ABQ'
p10183
aS'SAN'
p10184
aS'LAS'
p10185
as(S'PHX'
p10186
S'STL'
p10187
tp10188
(lp10189
S'RSW'
p10190
aS'MDW'
p10191
aS'DCA'
p10192
as(S'TUS'
p10193
S'DFW'
p10194
tp10195
(lp10196
S'LGA'
p10197
aS'IAH'
p10198
aS'MCI'
p10199
aS'MLI'
p10200
aS'MSP'
p10201
aS'SHV'
p10202
aS'MSN'
p10203
aS'AUS'
p10204
aS'SAT'
p10205
aS'ACT'
p10206
aS'CLT'
p10207
aS'BWI'
p10208
aS'ICT'
p10209
aS'SGF'
p10210
aS'PIT'
p10211
aS'ORD'
p10212
aS'TYS'
p10213
as(S'IAH'
p10214
S'SAN'
p10215
tp10216
(lp10217
S'LAX'
p10218
as(S'HOU'
p10219
S'TPA'
p10220
tp10221
(lp10222
S'BUF'
p10223
aS'SJU'
p10224
aS'FLL'
p10225
aS'EYW'
p10226
aS'BDL'
p10227
aS'PBI'
p10228
aS'PIT'
p10229
as(S'PHX'
p10230
S'SAT'
p10231
tp10232
(lp10233
S'DAL'
p10234
aS'TPA'
p10235
as(S'OKC'
p10236
S'IAH'
p10237
tp10238
(lp10239
S'MCO'
p10240
aS'SAN'
p10241
aS'MIA'
p10242
aS'PHX'
p10243
aS'BWI'
p10244
aS'GPT'
p10245
aS'MOB'
p10246
aS'LAS'
p10247
as(S'LAX'
p10248
S'KOA'
p10249
tp10250
(lp10251
S'LIH'
p10252
aS'HNL'
p10253
as(S'SJC'
p10254
S'PDX'
p10255
tp10256
(lp10257
S'EUG'
p10258
as(S'LGA'
p10259
S'MCO'
p10260
tp10261
(lp10262
S'MIA'
p10263
aS'RSW'
p10264
aS'PBI'
p10265
aS'FLL'
p10266
aS'TPA'
p10267
as(S'MSP'
p10268
S'LGA'
p10269
tp10270
(lp10271
S'JFK'
p10272
aS'BTV'
p10273
aS'BOS'
p10274
aS'BGR'
p10275
aS'MHT'
p10276
aS'PWM'
p10277
as(S'LAX'
p10278
S'DTW'
p10279
tp10280
(lp10281
S'MKE'
p10282
aS'FNT'
p10283
aS'CRW'
p10284
aS'CMH'
p10285
aS'BOS'
p10286
aS'FWA'
p10287
aS'SWF'
p10288
aS'CAK'
p10289
aS'MSN'
p10290
aS'FLL'
p10291
aS'CVG'
p10292
aS'ERI'
p10293
aS'GSO'
p10294
aS'ROC'
p10295
aS'DCA'
p10296
aS'EVV'
p10297
aS'BDL'
p10298
aS'BWI'
p10299
aS'BUF'
p10300
aS'DAY'
p10301
aS'MDT'
p10302
aS'PVD'
p10303
aS'RDU'
p10304
aS'GRR'
p10305
aS'TPA'
p10306
aS'ELM'
p10307
aS'CLE'
p10308
aS'IND'
p10309
aS'CLT'
p10310
aS'EWR'
p10311
aS'MCO'
p10312
aS'PHL'
p10313
aS'LGA'
p10314
aS'RIC'
p10315
aS'ORF'
p10316
aS'ORD'
p10317
aS'SBN'
p10318
as(S'IAD'
p10319
S'DEN'
p10320
tp10321
(lp10322
S'OMA'
p10323
aS'SAN'
p10324
aS'SNA'
p10325
aS'BUR'
p10326
aS'DRO'
p10327
aS'OAK'
p10328
aS'MRY'
p10329
aS'FAT'
p10330
aS'SFO'
p10331
aS'LAX'
p10332
aS'SEA'
p10333
aS'SJC'
p10334
aS'SLC'
p10335
aS'GJT'
p10336
aS'ONT'
p10337
aS'LAS'
p10338
as(S'ATL'
p10339
S'BNA'
p10340
tp10341
(lp10342
S'SEA'
p10343
aS'SLC'
p10344
as(S'ILM'
p10345
S'CLT'
p10346
tp10347
(lp10348
S'JFK'
p10349
aS'MKE'
p10350
aS'CMH'
p10351
aS'MIA'
p10352
aS'ATL'
p10353
aS'BOS'
p10354
aS'MSP'
p10355
aS'CAK'
p10356
aS'FLL'
p10357
aS'PVD'
p10358
aS'CLE'
p10359
aS'BUF'
p10360
aS'DAY'
p10361
aS'TPA'
p10362
aS'STL'
p10363
aS'BDL'
p10364
aS'EWR'
p10365
aS'BNA'
p10366
aS'MCO'
p10367
aS'MCI'
p10368
aS'PHL'
p10369
aS'PIT'
p10370
aS'ALB'
p10371
aS'SYR'
p10372
aS'IND'
p10373
aS'ORD'
p10374
aS'RSW'
p10375
as(S'JFK'
p10376
S'FLL'
p10377
tp10378
(lp10379
S'MIA'
p10380
aS'RSW'
p10381
as(S'MIA'
p10382
S'IAH'
p10383
tp10384
(lp10385
S'OMA'
p10386
aS'PHX'
p10387
aS'SAN'
p10388
aS'MSY'
p10389
aS'STL'
p10390
aS'DFW'
p10391
aS'TUS'
p10392
aS'OKC'
p10393
aS'MKE'
p10394
aS'ABQ'
p10395
aS'AUS'
p10396
aS'DAL'
p10397
aS'TUL'
p10398
aS'DEN'
p10399
aS'MCI'
p10400
aS'ELP'
p10401
aS'MEM'
p10402
aS'ICT'
p10403
as(S'PSP'
p10404
S'LAX'
p10405
tp10406
(lp10407
S'JFK'
p10408
aS'IAH'
p10409
aS'PDX'
p10410
aS'IAD'
p10411
aS'BOS'
p10412
aS'CLE'
p10413
aS'SFO'
p10414
aS'AUS'
p10415
aS'SEA'
p10416
aS'SMF'
p10417
aS'EWR'
p10418
aS'ORD'
p10419
aS'SAT'
p10420
as(S'PHX'
p10421
S'MDW'
p10422
tp10423
(lp10424
S'CLE'
p10425
aS'ROC'
p10426
aS'CAK'
p10427
aS'ORF'
p10428
aS'DSM'
p10429
aS'CLT'
p10430
aS'RSW'
p10431
as(S'RDU'
p10432
S'BWI'
p10433
tp10434
(lp10435
S'EWR'
p10436
aS'LGA'
p10437
aS'ROC'
p10438
as(S'IND'
p10439
S'DTW'
p10440
tp10441
(lp10442
S'MKE'
p10443
aS'AVP'
p10444
aS'BOS'
p10445
aS'BGM'
p10446
aS'SWF'
p10447
aS'CAK'
p10448
aS'MSN'
p10449
aS'FLL'
p10450
aS'DEN'
p10451
aS'SAN'
p10452
aS'SFO'
p10453
aS'SCE'
p10454
aS'ROC'
p10455
aS'DCA'
p10456
aS'PVD'
p10457
aS'SEA'
p10458
aS'IAD'
p10459
aS'BWI'
p10460
aS'BUF'
p10461
aS'RIC'
p10462
aS'MDT'
p10463
aS'MBS'
p10464
aS'TPA'
p10465
aS'ELM'
p10466
aS'BDL'
p10467
aS'DFW'
p10468
aS'DSM'
p10469
aS'GRB'
p10470
aS'HPN'
p10471
aS'CLT'
p10472
aS'EWR'
p10473
aS'MHT'
p10474
aS'SLC'
p10475
aS'MCO'
p10476
aS'OMA'
p10477
aS'MCI'
p10478
aS'ITH'
p10479
aS'PHL'
p10480
aS'PIT'
p10481
aS'ALB'
p10482
aS'SYR'
p10483
aS'PHX'
p10484
aS'LAX'
p10485
aS'TVC'
p10486
aS'ORF'
p10487
aS'SAT'
p10488
aS'PWM'
p10489
aS'LAS'
p10490
as(S'SNA'
p10491
S'IAH'
p10492
tp10493
(lp10494
S'MKE'
p10495
aS'MSY'
p10496
aS'MIA'
p10497
aS'ATL'
p10498
aS'LIT'
p10499
aS'FLL'
p10500
aS'DTW'
p10501
aS'TPA'
p10502
aS'DAL'
p10503
aS'OKC'
p10504
aS'DCA'
p10505
aS'IAD'
p10506
aS'BWI'
p10507
aS'PIT'
p10508
aS'SAT'
p10509
aS'SHV'
p10510
aS'STL'
p10511
aS'CLE'
p10512
aS'DFW'
p10513
aS'IND'
p10514
aS'AUS'
p10515
aS'DSM'
p10516
aS'EWR'
p10517
aS'BNA'
p10518
aS'PBI'
p10519
aS'ICT'
p10520
aS'MCO'
p10521
aS'MCI'
p10522
aS'PHL'
p10523
aS'LGA'
p10524
aS'SDF'
p10525
aS'LEX'
p10526
aS'ORD'
p10527
aS'TYS'
p10528
as(S'PHL'
p10529
S'SLC'
p10530
tp10531
(lp10532
S'RNO'
p10533
aS'SAN'
p10534
aS'PDX'
p10535
aS'SNA'
p10536
aS'BOI'
p10537
aS'PHX'
p10538
aS'LAX'
p10539
aS'SEA'
p10540
aS'SMF'
p10541
aS'SJC'
p10542
aS'JAC'
p10543
aS'LAS'
p10544
as(S'OGG'
p10545
S'SFO'
p10546
tp10547
(lp10548
S'RNO'
p10549
aS'SAN'
p10550
aS'PDX'
p10551
aS'BOI'
p10552
aS'MFR'
p10553
aS'PHX'
p10554
aS'LAX'
p10555
aS'SEA'
p10556
aS'SMF'
p10557
aS'LAS'
p10558
as(S'SAT'
p10559
S'LAX'
p10560
tp10561
(lp10562
S'CLD'
p10563
aS'PSP'
p10564
aS'SAN'
p10565
aS'SEA'
p10566
aS'LAS'
p10567
as(S'ORD'
p10568
S'XNA'
p10569
tp10570
(lp10571
S'DFW'
p10572
as(S'BWI'
p10573
S'MDW'
p10574
tp10575
(lp10576
S'BKG'
p10577
aS'MSP'
p10578
aS'DSM'
p10579
aS'ICT'
p10580
as(S'DFW'
p10581
S'ONT'
p10582
tp10583
(lp10584
S'LAX'
p10585
as(S'SFO'
p10586
S'CLE'
p10587
tp10588
(lp10589
S'LGA'
p10590
aS'CMH'
p10591
aS'ERI'
p10592
aS'BDL'
p10593
aS'ROC'
p10594
aS'SYR'
p10595
aS'IND'
p10596
aS'FNT'
p10597
aS'PVD'
p10598
aS'CLT'
p10599
aS'RIC'
p10600
as(S'BWI'
p10601
S'JAX'
p10602
tp10603
(lp10604
S'FLL'
p10605
as(S'LAX'
p10606
S'CLT'
p10607
tp10608
(lp10609
S'JFK'
p10610
aS'TRI'
p10611
aS'SJU'
p10612
aS'LGA'
p10613
aS'GNV'
p10614
aS'CRW'
p10615
aS'MSY'
p10616
aS'CMH'
p10617
aS'MIA'
p10618
aS'ALB'
p10619
aS'ATL'
p10620
aS'ILM'
p10621
aS'RIC'
p10622
aS'CAK'
p10623
aS'BDL'
p10624
aS'GSP'
p10625
aS'FLL'
p10626
aS'FLO'
p10627
aS'PIT'
p10628
aS'CVG'
p10629
aS'AGS'
p10630
aS'CAE'
p10631
aS'FAY'
p10632
aS'TPA'
p10633
aS'DAB'
p10634
aS'DTW'
p10635
aS'ROC'
p10636
aS'DCA'
p10637
aS'PGV'
p10638
aS'GSO'
p10639
aS'CLE'
p10640
aS'BWI'
p10641
aS'MYR'
p10642
aS'BUF'
p10643
aS'DAY'
p10644
aS'MDT'
p10645
aS'PVD'
p10646
aS'RDU'
p10647
aS'CHA'
p10648
aS'BOS'
p10649
aS'EWN'
p10650
aS'JAX'
p10651
aS'IAD'
p10652
aS'OAJ'
p10653
aS'ORF'
p10654
aS'CHS'
p10655
aS'EWR'
p10656
aS'BNA'
p10657
aS'CHO'
p10658
aS'PBI'
p10659
aS'MCO'
p10660
aS'PWM'
p10661
aS'PHL'
p10662
aS'LYH'
p10663
aS'SBY'
p10664
aS'AVP'
p10665
aS'PHF'
p10666
aS'SAV'
p10667
aS'AVL'
p10668
aS'SYR'
p10669
aS'HTS'
p10670
aS'LEX'
p10671
aS'RSW'
p10672
aS'TYS'
p10673
as(S'PBI'
p10674
S'ATL'
p10675
tp10676
(lp10677
S'MKE'
p10678
aS'BOS'
p10679
aS'PHL'
p10680
aS'PIT'
p10681
aS'ROC'
p10682
aS'AVP'
p10683
aS'DCA'
p10684
aS'SYR'
p10685
aS'BUF'
p10686
aS'HPN'
p10687
aS'IAD'
p10688
aS'BDL'
p10689
aS'EWR'
p10690
aS'MHT'
p10691
aS'AGS'
p10692
as(S'PHL'
p10693
S'MSY'
p10694
tp10695
(lp10696
S'IAH'
p10697
as(S'ATL'
p10698
S'HOU'
p10699
tp10700
(lp10701
S'DEN'
p10702
aS'MSY'
p10703
aS'SAT'
p10704
as(S'MSY'
p10705
S'BWI'
p10706
tp10707
(lp10708
S'ISP'
p10709
aS'BUF'
p10710
aS'BOS'
p10711
aS'PVD'
p10712
aS'MHT'
p10713
aS'PIT'
p10714
as(S'EWR'
p10715
S'LAX'
p10716
tp10717
(lp10718
S'SBP'
p10719
aS'RNO'
p10720
aS'PDX'
p10721
aS'FAT'
p10722
aS'SFO'
p10723
aS'SBA'
p10724
aS'SEA'
p10725
aS'SJC'
p10726
aS'SMF'
p10727
aS'PSP'
p10728
aS'LAS'
p10729
as(S'DFW'
p10730
S'LAX'
p10731
tp10732
(lp10733
S'SBP'
p10734
aS'RNO'
p10735
aS'SAN'
p10736
aS'PDX'
p10737
aS'FAT'
p10738
aS'SFO'
p10739
aS'SBA'
p10740
aS'SEA'
p10741
aS'LAS'
p10742
as(S'SMF'
p10743
S'LAX'
p10744
tp10745
(lp10746
S'PHX'
p10747
aS'SAN'
p10748
aS'LAS'
p10749
as(S'CVG'
p10750
S'DCA'
p10751
tp10752
(lp10753
S'LGA'
p10754
as(S'AUS'
p10755
S'LAS'
p10756
tp10757
(lp10758
S'SFO'
p10759
aS'PDX'
p10760
aS'SEA'
p10761
aS'SLC'
p10762
aS'SMF'
p10763
as(S'BNA'
p10764
S'TPA'
p10765
tp10766
(lp10767
S'PBI'
p10768
as(S'SMF'
p10769
S'DFW'
p10770
tp10771
(lp10772
S'MKE'
p10773
aS'MSY'
p10774
aS'CID'
p10775
aS'MIA'
p10776
aS'ATL'
p10777
aS'BOS'
p10778
aS'FSM'
p10779
aS'LIT'
p10780
aS'GPT'
p10781
aS'FLL'
p10782
aS'DCA'
p10783
aS'DTW'
p10784
aS'SHV'
p10785
aS'CMH'
p10786
aS'OKC'
p10787
aS'BTR'
p10788
aS'HSV'
p10789
aS'BDL'
p10790
aS'BWI'
p10791
aS'PIT'
p10792
aS'DAY'
p10793
aS'SAT'
p10794
aS'RDU'
p10795
aS'IAH'
p10796
aS'TPA'
p10797
aS'STL'
p10798
aS'CLE'
p10799
aS'OMA'
p10800
aS'ORF'
p10801
aS'AUS'
p10802
aS'DSM'
p10803
aS'CLT'
p10804
aS'EWR'
p10805
aS'BNA'
p10806
aS'PBI'
p10807
aS'GRK'
p10808
aS'ICT'
p10809
aS'MCO'
p10810
aS'ABI'
p10811
aS'RSW'
p10812
aS'MCI'
p10813
aS'PHL'
p10814
aS'LGA'
p10815
aS'SDF'
p10816
aS'TUL'
p10817
aS'IND'
p10818
aS'LAW'
p10819
aS'TYS'
p10820
as(S'SEA'
p10821
S'BOS'
p10822
tp10823
(lp10824
S'BWI'
p10825
aS'DCA'
p10826
aS'BUF'
p10827
aS'IAD'
p10828
as(S'ABQ'
p10829
S'DAL'
p10830
tp10831
(lp10832
S'MAF'
p10833
as(S'SEA'
p10834
S'ATL'
p10835
tp10836
(lp10837
S'MCO'
p10838
aS'LIT'
p10839
aS'DAB'
p10840
aS'VPS'
p10841
aS'PHL'
p10842
aS'CLE'
p10843
aS'CMH'
p10844
aS'OAJ'
p10845
aS'RIC'
p10846
aS'CAK'
p10847
aS'FLL'
p10848
aS'CLT'
p10849
aS'BWI'
p10850
aS'BNA'
p10851
aS'BUF'
p10852
aS'DAY'
p10853
as(S'PHL'
p10854
S'MCO'
p10855
tp10856
(lp10857
S'TPA'
p10858
aS'MSY'
p10859
aS'MIA'
p10860
aS'FLL'
p10861
aS'RSW'
p10862
aS'PBI'
p10863
as(S'LAS'
p10864
S'SNA'
p10865
tp10866
(lp10867
S'SFO'
p10868
as(S'DFW'
p10869
S'ATL'
p10870
tp10871
(lp10872
S'MSY'
p10873
aS'CMH'
p10874
aS'MIA'
p10875
aS'ILM'
p10876
aS'OAJ'
p10877
aS'CAK'
p10878
aS'FLL'
p10879
aS'AGS'
p10880
aS'MHT'
p10881
aS'CAE'
p10882
aS'FAY'
p10883
aS'VPS'
p10884
aS'ROC'
p10885
aS'PVD'
p10886
aS'BWI'
p10887
aS'BUF'
p10888
aS'MDW'
p10889
aS'MDT'
p10890
aS'RDU'
p10891
aS'TPA'
p10892
aS'STL'
p10893
aS'CLE'
p10894
aS'CHO'
p10895
aS'ORF'
p10896
aS'CLT'
p10897
aS'EWR'
p10898
aS'BNA'
p10899
aS'MCO'
p10900
aS'DAB'
p10901
aS'PHL'
p10902
aS'PIT'
p10903
aS'PNS'
p10904
aS'PHF'
p10905
aS'DAY'
p10906
aS'SYR'
p10907
aS'SDF'
p10908
aS'IND'
p10909
aS'MOB'
p10910
as(S'CLT'
p10911
S'DTW'
p10912
tp10913
(lp10914
S'MKE'
p10915
aS'FNT'
p10916
aS'CID'
p10917
aS'ALB'
p10918
aS'BOS'
p10919
aS'BGM'
p10920
aS'CAK'
p10921
aS'ATW'
p10922
aS'DEN'
p10923
aS'CMH'
p10924
aS'ERI'
p10925
aS'SAN'
p10926
aS'SFO'
p10927
aS'PIA'
p10928
aS'ROC'
p10929
aS'PDX'
p10930
aS'PVD'
p10931
aS'SEA'
p10932
aS'PIT'
p10933
aS'MDW'
p10934
aS'TVC'
p10935
aS'MBS'
p10936
aS'GRR'
p10937
aS'ABE'
p10938
aS'ELM'
p10939
aS'STL'
p10940
aS'BDL'
p10941
aS'MLI'
p10942
aS'OMA'
p10943
aS'FWA'
p10944
aS'DSM'
p10945
aS'MHT'
p10946
aS'LAN'
p10947
aS'MCI'
p10948
aS'BUF'
p10949
aS'AVP'
p10950
aS'DAY'
p10951
aS'SYR'
p10952
aS'SDF'
p10953
aS'PHX'
p10954
aS'LAX'
p10955
aS'IND'
p10956
aS'SAT'
p10957
aS'ORD'
p10958
aS'PWM'
p10959
aS'SBN'
p10960
aS'LAS'
p10961
as(S'LGA'
p10962
S'PBI'
p10963
tp10964
(lp10965
S'MIA'
p10966
aS'FLL'
p10967
as(S'ORD'
p10968
S'PBI'
p10969
tp10970
(lp10971
S'MIA'
p10972
aS'FLL'
p10973
as(S'SLC'
p10974
S'SFO'
p10975
tp10976
(lp10977
S'SBP'
p10978
aS'MRY'
p10979
aS'SNA'
p10980
aS'SBA'
p10981
aS'LAX'
p10982
aS'SEA'
p10983
as(S'IAH'
p10984
S'TPA'
p10985
tp10986
(lp10987
S'GNV'
p10988
aS'EYW'
p10989
as(S'MIA'
p10990
S'DCA'
p10991
tp10992
(lp10993
S'JFK'
p10994
aS'BWI'
p10995
aS'LGA'
p10996
aS'IAD'
p10997
as(S'ASE'
p10998
S'LAX'
p10999
tp11000
(lp11001
S'SFO'
p11002
aS'SAN'
p11003
as(S'JFK'
p11004
S'SAN'
p11005
tp11006
(lp11007
S'SFO'
p11008
as(S'SEA'
p11009
S'SFO'
p11010
tp11011
(lp11012
S'RNO'
p11013
aS'SAN'
p11014
aS'SNA'
p11015
aS'BUR'
p11016
aS'TUS'
p11017
aS'FAT'
p11018
aS'ABQ'
p11019
aS'PHX'
p11020
aS'LAX'
p11021
aS'PSP'
p11022
aS'SLC'
p11023
aS'ONT'
p11024
aS'LAS'
p11025
as(S'DFW'
p11026
S'MEM'
p11027
tp11028
(lp11029
S'RDU'
p11030
aS'MCO'
p11031
aS'MKE'
p11032
aS'TPA'
p11033
aS'CMH'
p11034
aS'PHL'
p11035
aS'DCA'
p11036
aS'CLT'
p11037
aS'SDF'
p11038
aS'LAX'
p11039
aS'IND'
p11040
aS'BNA'
p11041
aS'TYS'
p11042
aS'PIT'
p11043
aS'ORD'
p11044
aS'LAS'
p11045
as(S'RDU'
p11046
S'LGA'
p11047
tp11048
(lp11049
S'SYR'
p11050
aS'MHT'
p11051
aS'PWM'
p11052
aS'BUF'
p11053
aS'ROC'
p11054
as(S'ABQ'
p11055
S'HOU'
p11056
tp11057
(lp11058
S'TPA'
p11059
aS'ATL'
p11060
aS'AUS'
p11061
aS'FLL'
p11062
aS'CLT'
p11063
aS'EWR'
p11064
aS'SAT'
p11065
as(S'FLL'
p11066
S'JFK'
p11067
tp11068
(lp11069
S'BOS'
p11070
aS'LGA'
p11071
aS'PIT'
p11072
aS'PHL'
p11073
as(S'EWR'
p11074
S'AUS'
p11075
tp11076
(lp11077
S'DAL'
p11078
aS'LAS'
p11079
as(S'BWI'
p11080
S'SAN'
p11081
tp11082
(lp11083
S'SFO'
p11084
aS'OAK'
p11085
as(S'ATL'
p11086
S'JAX'
p11087
tp11088
(lp11089
S'MCO'
p11090
aS'FLL'
p11091
aS'TPA'
p11092
as(S'SEA'
p11093
S'PHX'
p11094
tp11095
(lp11096
S'SAN'
p11097
aS'SNA'
p11098
aS'BUR'
p11099
aS'TUS'
p11100
aS'LIT'
p11101
aS'LAX'
p11102
aS'LAS'
p11103
aS'ONT'
p11104
aS'SLC'
p11105
as(S'DCA'
p11106
S'BOS'
p11107
tp11108
(lp11109
S'ORD'
p11110
as(S'CVG'
p11111
S'IAH'
p11112
tp11113
(lp11114
S'MSY'
p11115
as(S'PHX'
p11116
S'EWR'
p11117
tp11118
(lp11119
S'JFK'
p11120
aS'BTV'
p11121
aS'ROC'
p11122
aS'ITH'
p11123
aS'BDL'
p11124
aS'BOS'
p11125
aS'ALB'
p11126
aS'SJU'
p11127
aS'SYR'
p11128
aS'PVD'
p11129
aS'BWI'
p11130
aS'MHT'
p11131
aS'PWM'
p11132
aS'BUF'
p11133
aS'RIC'
p11134
aS'MDT'
p11135
as(S'MIA'
p11136
S'MSP'
p11137
tp11138
(lp11139
S'SFO'
p11140
aS'DTW'
p11141
aS'DEN'
p11142
as(S'PHL'
p11143
S'DFW'
p11144
tp11145
(lp11146
S'CLL'
p11147
aS'COS'
p11148
aS'MCI'
p11149
aS'MSY'
p11150
aS'PDX'
p11151
aS'BTR'
p11152
aS'SAN'
p11153
aS'ABQ'
p11154
aS'AUS'
p11155
aS'PHX'
p11156
aS'LAX'
p11157
aS'TYR'
p11158
aS'ACT'
p11159
aS'LCH'
p11160
aS'LAS'
p11161
aS'GRK'
p11162
aS'IAH'
p11163
aS'SAT'
p11164
as(S'LAX'
p11165
S'OKC'
p11166
tp11167
(lp11168
S'ORD'
p11169
as(S'SLC'
p11170
S'LAX'
p11171
tp11172
(lp11173
S'SBA'
p11174
as(S'MSP'
p11175
S'IAH'
p11176
tp11177
(lp11178
S'MSY'
p11179
aS'HRL'
p11180
aS'AUS'
p11181
aS'LAX'
p11182
aS'ELP'
p11183
aS'SAT'
p11184
as(S'BUF'
p11185
S'EWR'
p11186
tp11187
(lp11188
S'MCO'
p11189
aS'RDU'
p11190
aS'IAH'
p11191
aS'TPA'
p11192
aS'MIA'
p11193
aS'DFW'
p11194
aS'BOS'
p11195
aS'ORF'
p11196
aS'AUS'
p11197
aS'PHX'
p11198
aS'FLL'
p11199
aS'DEN'
p11200
aS'CLT'
p11201
aS'RSW'
p11202
aS'PBI'
p11203
aS'LAS'
p11204
as(S'EWR'
p11205
S'PBI'
p11206
tp11207
(lp11208
S'MIA'
p11209
aS'RSW'
p11210
aS'FLL'
p11211
as(S'DFW'
p11212
S'LAS'
p11213
tp11214
(lp11215
S'SFO'
p11216
aS'LAX'
p11217
aS'SAN'
p11218
aS'PDX'
p11219
as(S'BDL'
p11220
S'ATL'
p11221
tp11222
(lp11223
S'RDU'
p11224
aS'GSP'
p11225
aS'MKE'
p11226
aS'GNV'
p11227
aS'MSY'
p11228
aS'CMH'
p11229
aS'MIA'
p11230
aS'LIT'
p11231
aS'GPT'
p11232
aS'FLL'
p11233
aS'DEN'
p11234
aS'AGS'
p11235
aS'CAE'
p11236
aS'TPA'
p11237
aS'DAB'
p11238
aS'LFT'
p11239
aS'CHS'
p11240
aS'HSV'
p11241
aS'ECP'
p11242
aS'SAV'
p11243
aS'SAT'
p11244
aS'MLB'
p11245
aS'CHA'
p11246
aS'IAH'
p11247
aS'JAX'
p11248
aS'STL'
p11249
aS'DFW'
p11250
aS'SJU'
p11251
aS'STT'
p11252
aS'AUS'
p11253
aS'SRQ'
p11254
aS'EYW'
p11255
aS'CLT'
p11256
aS'BNA'
p11257
aS'TLH'
p11258
aS'PBI'
p11259
aS'MCO'
p11260
aS'XNA'
p11261
aS'OMA'
p11262
aS'BHM'
p11263
aS'VPS'
p11264
aS'MCI'
p11265
aS'BTR'
p11266
aS'MEM'
p11267
aS'PNS'
p11268
aS'MGM'
p11269
aS'AVL'
p11270
aS'SDF'
p11271
aS'HOU'
p11272
aS'IND'
p11273
aS'MOB'
p11274
aS'RSW'
p11275
aS'LAS'
p11276
as(S'SFO'
p11277
S'KOA'
p11278
tp11279
(lp11280
S'HNL'
p11281
as(S'MKE'
p11282
S'DTW'
p11283
tp11284
(lp11285
S'JFK'
p11286
aS'GSP'
p11287
aS'MSY'
p11288
aS'CMH'
p11289
aS'AVP'
p11290
aS'BDL'
p11291
aS'BOS'
p11292
aS'SWF'
p11293
aS'CAK'
p11294
aS'BGR'
p11295
aS'FLL'
p11296
aS'ERI'
p11297
aS'EVV'
p11298
aS'ORF'
p11299
aS'SAN'
p11300
aS'SYR'
p11301
aS'SCE'
p11302
aS'ROC'
p11303
aS'OKC'
p11304
aS'DCA'
p11305
aS'PVD'
p11306
aS'SEA'
p11307
aS'IAD'
p11308
aS'BWI'
p11309
aS'RSW'
p11310
aS'PIT'
p11311
aS'RIC'
p11312
aS'MDT'
p11313
aS'MBS'
p11314
aS'RDU'
p11315
aS'GRR'
p11316
aS'ABE'
p11317
aS'TPA'
p11318
aS'ELM'
p11319
aS'STL'
p11320
aS'CLE'
p11321
aS'DFW'
p11322
aS'IND'
p11323
aS'AUS'
p11324
aS'HPN'
p11325
aS'LAS'
p11326
aS'CLT'
p11327
aS'EWR'
p11328
aS'MHT'
p11329
aS'MCO'
p11330
aS'LAX'
p11331
aS'OMA'
p11332
aS'BTV'
p11333
aS'BHM'
p11334
aS'MCI'
p11335
aS'PHL'
p11336
aS'BUF'
p11337
aS'LGA'
p11338
aS'ALB'
p11339
aS'DAY'
p11340
aS'SFO'
p11341
aS'SDF'
p11342
aS'PHX'
p11343
aS'BNA'
p11344
aS'LEX'
p11345
aS'SAT'
p11346
aS'GSO'
p11347
aS'PWM'
p11348
aS'TYS'
p11349
as(S'CLE'
p11350
S'MSP'
p11351
tp11352
(lp11353
S'OMA'
p11354
aS'PHX'
p11355
aS'SNA'
p11356
aS'DSM'
p11357
aS'LAX'
p11358
aS'DEN'
p11359
aS'LAS'
p11360
as(S'EWR'
p11361
S'CLT'
p11362
tp11363
(lp11364
S'PBI'
p11365
as(S'SLC'
p11366
S'DCA'
p11367
tp11368
(lp11369
S'JFK'
p11370
aS'BWI'
p11371
as(S'CLT'
p11372
S'EWR'
p11373
tp11374
(lp11375
S'BOS'
p11376
aS'ROC'
p11377
aS'PHL'
p11378
aS'BDL'
p11379
aS'LGA'
p11380
aS'ALB'
p11381
aS'SYR'
p11382
aS'BTV'
p11383
aS'MHT'
p11384
aS'PWM'
p11385
aS'BUF'
p11386
as(S'MCO'
p11387
S'LGA'
p11388
tp11389
(lp11390
S'BTV'
p11391
aS'PIT'
p11392
aS'ROC'
p11393
aS'SYR'
p11394
aS'MHT'
p11395
aS'PWM'
p11396
aS'BUF'
p11397
as(S'PHX'
p11398
S'BWI'
p11399
tp11400
(lp11401
S'BOS'
p11402
aS'CLE'
p11403
aS'ISP'
p11404
aS'ALB'
p11405
aS'PVD'
p11406
aS'ORF'
p11407
aS'MHT'
p11408
aS'PWM'
p11409
as(S'ORD'
p11410
S'SFO'
p11411
tp11412
(lp11413
S'SBP'
p11414
aS'RNO'
p11415
aS'MRY'
p11416
aS'SNA'
p11417
aS'BUR'
p11418
aS'EUG'
p11419
aS'FAT'
p11420
aS'RDD'
p11421
aS'SBA'
p11422
aS'SEA'
p11423
aS'ONT'
p11424
aS'LAS'
p11425
as(S'CLE'
p11426
S'LAS'
p11427
tp11428
(lp11429
S'LAX'
p11430
aS'SAN'
p11431
as(S'CLT'
p11432
S'MCO'
p11433
tp11434
(lp11435
S'FLL'
p11436
aS'LAS'
p11437
as(S'STL'
p11438
S'EWR'
p11439
tp11440
(lp11441
S'BOS'
p11442
as(S'FLL'
p11443
S'LAX'
p11444
tp11445
(lp11446
S'SFO'
p11447
as(S'LIH'
p11448
S'LAX'
p11449
tp11450
(lp11451
S'SAN'
p11452
aS'PDX'
p11453
aS'CLD'
p11454
aS'SFO'
p11455
aS'PHX'
p11456
aS'SEA'
p11457
aS'SJC'
p11458
aS'SMF'
p11459
aS'LAS'
p11460
as(S'LAS'
p11461
S'MIA'
p11462
tp11463
(lp11464
S'MCO'
p11465
aS'TPA'
p11466
aS'EYW'
p11467
aS'JAX'
p11468
aS'SJU'
p11469
as(S'JFK'
p11470
S'DCA'
p11471
tp11472
(lp11473
S'IAD'
p11474
as(S'LGA'
p11475
S'STL'
p11476
tp11477
(lp11478
S'MCO'
p11479
aS'CMH'
p11480
aS'HOU'
p11481
aS'DEN'
p11482
aS'ORD'
p11483
aS'DTW'
p11484
aS'MDW'
p11485
aS'SAT'
p11486
as(S'BOS'
p11487
S'LAS'
p11488
tp11489
(lp11490
S'LGB'
p11491
aS'SFO'
p11492
aS'LAX'
p11493
as(S'CVG'
p11494
S'EWR'
p11495
tp11496
(lp11497
S'LGA'
p11498
aS'PVD'
p11499
as(S'MEM'
p11500
S'SLC'
p11501
tp11502
(lp11503
S'RNO'
p11504
aS'SFO'
p11505
aS'BOI'
p11506
aS'PHX'
p11507
aS'LAX'
p11508
aS'SEA'
p11509
aS'JAC'
p11510
aS'LAS'
p11511
as(S'STL'
p11512
S'BWI'
p11513
tp11514
(lp11515
S'PIT'
p11516
aS'ROC'
p11517
aS'PBI'
p11518
as(S'SAN'
p11519
S'ORD'
p11520
tp11521
(lp11522
S'STL'
p11523
aS'MCO'
p11524
aS'CID'
p11525
aS'HPN'
p11526
aS'PHL'
p11527
as(S'DFW'
p11528
S'EWR'
p11529
tp11530
(lp11531
S'BOS'
p11532
aS'LGA'
p11533
aS'AVP'
p11534
aS'ROC'
p11535
aS'ALB'
p11536
aS'SYR'
p11537
aS'PWM'
p11538
aS'BUF'
p11539
aS'MDT'
p11540
as(S'BOS'
p11541
S'SAN'
p11542
tp11543
(lp11544
S'SFO'
p11545
aS'LAX'
p11546
as(S'BUR'
p11547
S'SFO'
p11548
tp11549
(lp11550
S'RNO'
p11551
aS'PDX'
p11552
aS'IAD'
p11553
aS'EUG'
p11554
aS'BOI'
p11555
aS'MFR'
p11556
aS'SEA'
p11557
aS'RDM'
p11558
aS'DFW'
p11559
as(S'CLT'
p11560
S'BOS'
p11561
tp11562
(lp11563
S'BUF'
p11564
as(S'DFW'
p11565
S'DTW'
p11566
tp11567
(lp11568
S'MKE'
p11569
aS'FNT'
p11570
aS'CMH'
p11571
aS'BGM'
p11572
aS'SWF'
p11573
aS'CAK'
p11574
aS'ERI'
p11575
aS'ROC'
p11576
aS'PVD'
p11577
aS'BDL'
p11578
aS'BWI'
p11579
aS'BUF'
p11580
aS'DAY'
p11581
aS'MDT'
p11582
aS'ELM'
p11583
aS'CLE'
p11584
aS'MHT'
p11585
aS'ITH'
p11586
aS'PIT'
p11587
aS'LGA'
p11588
aS'SYR'
p11589
aS'IND'
p11590
aS'SBN'
p11591
as(S'OAK'
p11592
S'DAL'
p11593
tp11594
(lp11595
S'HOU'
p11596
as(S'ORD'
p11597
S'FLL'
p11598
tp11599
(lp11600
S'BQN'
p11601
aS'TPA'
p11602
as(S'MCO'
p11603
S'PHX'
p11604
tp11605
(lp11606
S'LGB'
p11607
aS'MRY'
p11608
aS'SAN'
p11609
as(S'MCI'
p11610
S'MSP'
p11611
tp11612
(lp11613
S'MKE'
p11614
aS'FNT'
p11615
aS'CMH'
p11616
aS'BOS'
p11617
aS'FWA'
p11618
aS'DEN'
p11619
aS'BZN'
p11620
aS'SMF'
p11621
aS'LSE'
p11622
aS'SAN'
p11623
aS'DCA'
p11624
aS'GEG'
p11625
aS'BWI'
p11626
aS'PIT'
p11627
aS'MDW'
p11628
aS'GRR'
p11629
aS'PDX'
p11630
aS'IAD'
p11631
aS'SNA'
p11632
aS'PHL'
p11633
aS'DAY'
p11634
aS'SDF'
p11635
aS'PHX'
p11636
aS'LAX'
p11637
aS'IND'
p11638
aS'ORD'
p11639
aS'LAS'
p11640
as(S'SJC'
p11641
S'JFK'
p11642
tp11643
(lp11644
S'BOS'
p11645
as(S'DCA'
p11646
S'DFW'
p11647
tp11648
(lp11649
S'COS'
p11650
aS'MSY'
p11651
aS'AEX'
p11652
aS'GJT'
p11653
aS'FSM'
p11654
aS'XNA'
p11655
aS'DEN'
p11656
aS'ACT'
p11657
aS'SMF'
p11658
aS'MHK'
p11659
aS'MFE'
p11660
aS'CRP'
p11661
aS'AMA'
p11662
aS'SPS'
p11663
aS'FAT'
p11664
aS'BTR'
p11665
aS'LBB'
p11666
aS'SEA'
p11667
aS'LAX'
p11668
aS'SLC'
p11669
aS'ONT'
p11670
aS'SAT'
p11671
aS'CLL'
p11672
aS'IAH'
p11673
aS'SHV'
p11674
aS'PDX'
p11675
aS'ABI'
p11676
aS'GCK'
p11677
aS'SJT'
p11678
aS'ABQ'
p11679
aS'AUS'
p11680
aS'HOU'
p11681
aS'SJC'
p11682
aS'ELP'
p11683
aS'GRK'
p11684
aS'ICT'
p11685
aS'LIT'
p11686
aS'OMA'
p11687
aS'RNO'
p11688
aS'MCI'
p11689
aS'SNA'
p11690
aS'TUS'
p11691
aS'SAN'
p11692
aS'SFO'
p11693
aS'OKC'
p11694
aS'PHX'
p11695
aS'TUL'
p11696
aS'PSP'
p11697
aS'TYR'
p11698
aS'LAS'
p11699
as(S'MCO'
p11700
S'DFW'
p11701
tp11702
(lp11703
S'OMA'
p11704
aS'MCI'
p11705
aS'STL'
p11706
aS'AEX'
p11707
aS'COS'
p11708
aS'SPS'
p11709
aS'OAK'
p11710
aS'GGG'
p11711
aS'MSP'
p11712
aS'ABQ'
p11713
aS'AUS'
p11714
aS'DSM'
p11715
aS'DEN'
p11716
aS'ICT'
p11717
aS'TYR'
p11718
aS'SAT'
p11719
as(S'MSP'
p11720
S'CLE'
p11721
tp11722
(lp11723
S'MHT'
p11724
aS'PWM'
p11725
aS'MDT'
p11726
aS'BTV'
p11727
as(S'SEA'
p11728
S'PHL'
p11729
tp11730
(lp11731
S'EWR'
p11732
aS'DCA'
p11733
aS'HPN'
p11734
aS'BWI'
p11735
as(S'AUS'
p11736
S'ATL'
p11737
tp11738
(lp11739
S'JFK'
p11740
aS'RDU'
p11741
aS'MKE'
p11742
aS'ILM'
p11743
aS'OAJ'
p11744
aS'FLL'
p11745
aS'AGS'
p11746
aS'BNA'
p11747
aS'GSO'
p11748
aS'FAY'
p11749
aS'DAB'
p11750
aS'ROA'
p11751
aS'PVD'
p11752
aS'BWI'
p11753
aS'BUF'
p11754
aS'RIC'
p11755
aS'MLB'
p11756
aS'BOS'
p11757
aS'TPA'
p11758
aS'CLT'
p11759
aS'MHT'
p11760
aS'MCO'
p11761
aS'PHL'
p11762
aS'LGA'
p11763
aS'SYR'
p11764
as(S'CVG'
p11765
S'DEN'
p11766
tp11767
(lp11768
S'LAS'
p11769
as(S'ORD'
p11770
S'SJC'
p11771
tp11772
(lp11773
S'SFO'
p11774
as(S'LGA'
p11775
S'CMH'
p11776
tp11777
(lp11778
S'ORD'
p11779
as(S'CVG'
p11780
S'SLC'
p11781
tp11782
(lp11783
S'SAN'
p11784
aS'PDX'
p11785
aS'SNA'
p11786
aS'SFO'
p11787
aS'MFR'
p11788
aS'PHX'
p11789
aS'LAX'
p11790
aS'SEA'
p11791
aS'GEG'
p11792
aS'IDA'
p11793
aS'JAC'
p11794
aS'LAS'
p11795
as(S'MEM'
p11796
S'DEN'
p11797
tp11798
(lp11799
S'SFO'
p11800
aS'COS'
p11801
as(S'IAD'
p11802
S'DFW'
p11803
tp11804
(lp11805
S'LIT'
p11806
aS'COS'
p11807
aS'TUL'
p11808
aS'RNO'
p11809
aS'IAH'
p11810
aS'CRP'
p11811
aS'SNA'
p11812
aS'TUS'
p11813
aS'AUS'
p11814
aS'OMA'
p11815
aS'FAT'
p11816
aS'XNA'
p11817
aS'SFO'
p11818
aS'ABQ'
p11819
aS'PHX'
p11820
aS'LAX'
p11821
aS'DEN'
p11822
aS'SJC'
p11823
aS'ELP'
p11824
aS'SAT'
p11825
aS'ICT'
p11826
as(S'MKE'
p11827
S'MSP'
p11828
tp11829
(lp11830
S'MCI'
p11831
as(S'DEN'
p11832
S'CLE'
p11833
tp11834
(lp11835
S'MHT'
p11836
aS'ROC'
p11837
aS'BUF'
p11838
aS'MDT'
p11839
as(S'BOS'
p11840
S'LAX'
p11841
tp11842
(lp11843
S'SAN'
p11844
aS'PDX'
p11845
aS'CLD'
p11846
aS'FAT'
p11847
aS'SEA'
p11848
aS'PSP'
p11849
aS'LAS'
p11850
as(S'DCA'
p11851
S'CLE'
p11852
tp11853
(lp11854
S'MKE'
p11855
aS'FNT'
p11856
aS'GRR'
p11857
aS'MCI'
p11858
aS'MSN'
p11859
aS'SDF'
p11860
aS'LAX'
p11861
aS'DAY'
p11862
as(S'LGA'
p11863
S'MSP'
p11864
tp11865
(lp11866
S'MKE'
p11867
aS'FSD'
p11868
aS'MSN'
p11869
aS'DEN'
p11870
aS'SMF'
p11871
aS'SAN'
p11872
aS'SEA'
p11873
aS'LNK'
p11874
aS'RAP'
p11875
aS'DLH'
p11876
aS'ABQ'
p11877
aS'AUS'
p11878
aS'DSM'
p11879
aS'SJC'
p11880
aS'ICT'
p11881
aS'OMA'
p11882
aS'SNA'
p11883
aS'TUS'
p11884
aS'SFO'
p11885
aS'OKC'
p11886
aS'PHX'
p11887
aS'LAX'
p11888
aS'RST'
p11889
aS'LAS'
p11890
as(S'OKC'
p11891
S'ORD'
p11892
tp11893
(lp11894
S'BWI'
p11895
aS'MKE'
p11896
aS'GRR'
p11897
aS'CID'
p11898
as(S'CVG'
p11899
S'DTW'
p11900
tp11901
(lp11902
S'CID'
p11903
aS'AVP'
p11904
aS'BOS'
p11905
aS'MSN'
p11906
aS'DEN'
p11907
aS'SAN'
p11908
aS'ROC'
p11909
aS'PVD'
p11910
aS'SEA'
p11911
aS'CLE'
p11912
aS'BUF'
p11913
aS'TVC'
p11914
aS'BDL'
p11915
aS'GRB'
p11916
aS'MHT'
p11917
aS'OMA'
p11918
aS'BTV'
p11919
aS'ATW'
p11920
aS'ALB'
p11921
aS'SFO'
p11922
aS'PHX'
p11923
aS'LAX'
p11924
aS'MDT'
p11925
aS'ORF'
p11926
aS'PWM'
p11927
aS'LAS'
p11928
as(S'DCA'
p11929
S'DEN'
p11930
tp11931
(lp11932
S'COS'
p11933
aS'PHX'
p11934
aS'DRO'
p11935
aS'SNA'
p11936
aS'PDX'
p11937
aS'BIL'
p11938
aS'ABQ'
p11939
aS'SBA'
p11940
aS'LAX'
p11941
aS'SEA'
p11942
aS'SFO'
p11943
aS'SJC'
p11944
aS'SLC'
p11945
aS'LAS'
p11946
as(S'CVG'
p11947
S'LGA'
p11948
tp11949
(lp11950
S'JFK'
p11951
aS'BTV'
p11952
as(S'DTW'
p11953
S'RSW'
p11954
tp11955
(lp11956
S'FLL'
p11957
as(S'SAT'
p11958
S'BNA'
p11959
tp11960
(lp11961
S'ORF'
p11962
aS'LGA'
p11963
aS'PHL'
p11964
as(S'LGA'
p11965
S'RDU'
p11966
tp11967
(lp11968
S'CLT'
p11969
as(S'BWI'
p11970
S'AUS'
p11971
tp11972
(lp11973
S'DAL'
p11974
aS'ELP'
p11975
as(S'RDU'
p11976
S'BOS'
p11977
tp11978
(lp11979
S'BUF'
p11980
as(S'CAE'
p11981
S'ATL'
p11982
tp11983
(lp11984
S'COS'
p11985
aS'MSY'
p11986
aS'CMH'
p11987
aS'MIA'
p11988
aS'BOS'
p11989
aS'MKE'
p11990
aS'MSP'
p11991
aS'LIT'
p11992
aS'FLL'
p11993
aS'DEN'
p11994
aS'CVG'
p11995
aS'BNA'
p11996
aS'XNA'
p11997
aS'SAN'
p11998
aS'OKC'
p11999
aS'BWI'
p12000
aS'PIT'
p12001
aS'MDW'
p12002
aS'SAT'
p12003
aS'STL'
p12004
aS'BDL'
p12005
aS'DFW'
p12006
aS'ABQ'
p12007
aS'AUS'
p12008
aS'DSM'
p12009
aS'EWR'
p12010
aS'ELP'
p12011
aS'PBI'
p12012
aS'GRK'
p12013
aS'ICT'
p12014
aS'MCO'
p12015
aS'CAK'
p12016
aS'OMA'
p12017
aS'MCI'
p12018
aS'PHL'
p12019
aS'MEM'
p12020
aS'BUF'
p12021
aS'LGA'
p12022
aS'SYR'
p12023
aS'SDF'
p12024
aS'PHX'
p12025
aS'TUL'
p12026
aS'IND'
p12027
aS'RSW'
p12028
aS'LAS'
p12029
as(S'FLL'
p12030
S'ATL'
p12031
tp12032
(lp12033
S'RDU'
p12034
aS'FAY'
p12035
aS'EWN'
p12036
aS'PHL'
p12037
aS'IAD'
p12038
aS'ILM'
p12039
aS'OAJ'
p12040
aS'DCA'
p12041
aS'PVD'
p12042
aS'BDL'
p12043
aS'BWI'
p12044
aS'RIC'
p12045
as(S'PDX'
p12046
S'ATL'
p12047
tp12048
(lp12049
S'RDU'
p12050
aS'TRI'
p12051
aS'GNV'
p12052
aS'MSY'
p12053
aS'MIA'
p12054
aS'ILM'
p12055
aS'LIT'
p12056
aS'FLL'
p12057
aS'CVG'
p12058
aS'GSO'
p12059
aS'FAY'
p12060
aS'JAX'
p12061
aS'DAB'
p12062
aS'ROA'
p12063
aS'MYR'
p12064
aS'DCA'
p12065
aS'CAE'
p12066
aS'CLE'
p12067
aS'BWI'
p12068
aS'BUF'
p12069
aS'RIC'
p12070
aS'MLB'
p12071
aS'BOS'
p12072
aS'TPA'
p12073
aS'IAD'
p12074
aS'ECP'
p12075
aS'CHS'
p12076
aS'CLT'
p12077
aS'BNA'
p12078
aS'TLH'
p12079
aS'PBI'
p12080
aS'MCO'
p12081
aS'VPS'
p12082
aS'PHL'
p12083
aS'PIT'
p12084
aS'PNS'
p12085
aS'LGA'
p12086
aS'PHF'
p12087
aS'AVL'
p12088
aS'SDF'
p12089
aS'IND'
p12090
aS'RSW'
p12091
aS'TYS'
p12092
as(S'ORD'
p12093
S'SNA'
p12094
tp12095
(lp12096
S'LAX'
p12097
as(S'PBI'
p12098
S'ORD'
p12099
tp12100
(lp12101
S'STL'
p12102
aS'SFO'
p12103
aS'GRR'
p12104
aS'SEA'
p12105
aS'MSP'
p12106
as(S'OKC'
p12107
S'LAX'
p12108
tp12109
(lp12110
S'SMF'
p12111
aS'PSP'
p12112
aS'SBA'
p12113
aS'SAN'
p12114
aS'LAS'
p12115
as(S'ORD'
p12116
S'CVG'
p12117
tp12118
(lp12119
S'MCO'
p12120
aS'JFK'
p12121
aS'IAH'
p12122
aS'TPA'
p12123
aS'PHL'
p12124
aS'BDL'
p12125
aS'DFW'
p12126
aS'BOS'
p12127
aS'DCA'
p12128
aS'RDU'
p12129
aS'FLL'
p12130
aS'IAD'
p12131
aS'CLT'
p12132
aS'EWR'
p12133
aS'BNA'
p12134
aS'RSW'
p12135
aS'PIT'
p12136
as.